******************************************************************************
                  TI ARM Linker PC v18.12.4                    
******************************************************************************
>> Linked Mon Apr  6 16:26:28 2020

OUTPUT FILE NAME:   <rfEasyLinkTx_copy.out>
ENTRY POINT SYMBOL: "ResetISR"  address: 00005c21


MEMORY CONFIGURATION

         name            origin    length      used     unused   attr    fill
----------------------  --------  ---------  --------  --------  ----  --------
  FLASH                 00000000   00058000  00008bf5  0004f40b  R  X
  GPRAM                 11000000   00002000  00000000  00002000  RW X
  SRAM                  20000000   00014000  00005868  0000e798  RW X


SEGMENT ALLOCATION MAP

run origin  load origin   length   init length attrs members
----------  ----------- ---------- ----------- ----- -------
00000000    00000000    00008ba0   00008ba0    r-x
  00000000    00000000    0000003c   0000003c    r-- .resetVecs
  0000003c    0000003c    00007a08   00007a08    r-x .text
  00007a44    00007a44    00000e49   00000e49    r-- .const
  00008890    00008890    00000310   00000310    r-- .cinit
00057fa8    00057fa8    00000058   00000058    r--
  00057fa8    00057fa8    00000058   00000058    r-- .ccfg
20000100    20000100    0000000c   00000000    rw-
  20000100    20000100    00000004   00000000    rw- .data:xdcRomConstPtr
  20000104    20000104    00000004   00000000    rw- .data:xdcRomExternFuncPtr
  20000108    20000108    00000004   00000000    rw- .data:xdcRomStatePtr
20000110    20000110    00004000   00000000    r--
  20000110    20000110    00004000   00000000    r-- .priheap
20004110    20004110    0000138a   00000000    rw-
  20004110    20004110    00000c7a   00000000    rw- .bss
  20004d90    20004d90    0000070a   00000000    rw- .data
20013c00    20013c00    00000400   00000000    rw-
  20013c00    20013c00    00000400   00000000    rw- .stack


SECTION ALLOCATION MAP

 output                                  attributes/
section   page    origin      length       input sections
--------  ----  ----------  ----------   ----------------
.binit     0    00000000    00000000     

.cinit     0    00008890    00000310     
                  00008890    000002b8     (.cinit..data.load) [load image, compression = lzss]
                  00008b48    0000000c     (__TI_handler_table)
                  00008b54    00000004     --HOLE-- [fill = 0]
                  00008b58    00000008     (.cinit..bss.load) [load image, compression = zero_init]
                  00008b60    00000008     (.cinit..data:xdcRomConstPtr.load) [load image, compression = lzss]
                  00008b68    00000008     (.cinit..data:xdcRomExternFuncPtr.load) [load image, compression = lzss]
                  00008b70    00000008     (.cinit..data:xdcRomStatePtr.load) [load image, compression = lzss]
                  00008b78    00000028     (__TI_cinit_table)

.init_array 
*          0    00000000    00000000     UNINITIALIZED

.ccfg      0    00057fa8    00000058     
                  00057fa8    00000058     ti_devices_config.obj (.ccfg:retain)

.bss       0    20004110    00000c7a     UNINITIALIZED
                  20004110    00000470     rf_multiMode_cc13x2.aem4f : RFCC26X2_multiMode.c.cc13x2.ccs.o (.bss:$O1$$)
                  20004580    00000200     release_pem4f.oem4f (.bss:taskStackSection)
                  20004780    0000012c     (.common:uartCC26XXObjects)
                  200048ac    000000d8     (.common:ti_sysbios_family_arm_m3_Hwi_dispatchTable)
                  20004984    00000004     drivers_cc13x2.aem4f : PINCC26XX.oem4f (.bss)
                  20004988    000000a8     EasyLink.obj (.bss:rfObject)
                  20004a30    0000008c     EasyLink.obj (.bss:txBuffer)
                  20004abc    0000007c     (.common:pinHandleTable)
                  20004b38    00000034     drivers_cc13x2.aem4f : PINCC26XX.oem4f (.bss:pinSwi)
                  20004b6c    00000030     EasyLink.obj (.bss:EasyLink_cmdPropRadioSetup)
                  20004b9c    00000030     EasyLink.obj (.bss:EasyLink_cmdPropRxAdv)
                  20004bcc    00000020     EasyLink.obj (.bss:EasyLink_cmdPropTxAdv)
                  20004bec    00000020     drivers_cc13x2.aem4f : PINCC26XX.oem4f (.bss:pinGpioConfigTable)
                  20004c0c    00000020     EasyLink.obj (.bss:rfParams)
                  20004c2c    00000020     ti_drivers_config.obj (.bss:uartCC26XXRingBuffer0)
                  20004c4c    0000001c     driverlib.lib : osc.obj (.bss:$O1$$)
                  20004c68    0000001c     EasyLink.obj (.bss:EasyLink_cmdPropCs)
                  20004c84    0000001c     drivers_cc13x2.aem4f : PINCC26XX.oem4f (.bss:pinHwi)
                  20004ca0    0000001c                          : PINCC26XX.oem4f (.bss:pinSemaphore)
                  20004cbc    0000001c     EasyLink.obj (.bss:schParams_prop)
                  20004cd8    00000018     EasyLink.obj (.bss)
                  20004cf0    00000018     EasyLink.obj (.bss:EasyLink_cmdFs)
                  20004d08    00000014     rf_multiMode_cc13x2.aem4f : RFCC26X2_multiMode.c.cc13x2.ccs.o (.bss:RF_ratSyncCmd)
                  20004d1c    00000010     EasyLink.obj (.bss:EasyLink_RF_prop)
                  20004d2c    00000010     EasyLink.obj (.bss:EasyLink_params)
                  20004d3c    0000000c     ti_drivers_config.obj (.bss:frontendState)
                  20004d48    0000000c     rfEasyLinkTx.obj (.bss:pinState)
                  20004d54    0000000c     EasyLink.obj (.bss:rxStatistics)
                  20004d60    00000008     EasyLink.obj (.bss:dataQueue)
                  20004d68    00000004     rfEasyLinkTx.obj (.bss)
                  20004d6c    00000004     ti_drivers_config.obj (.bss)
                  20004d70    00000004     (.common:ClockP_tickPeriod)
                  20004d74    00000004     (.common:MQ_UartOUT_RfIN)
                  20004d78    00000004     (.common:MQ_Uart_Sent)
                  20004d7c    00000004     (.common:PowerCC26XX_swiKey)
                  20004d80    00000004     (.common:PowerCC26XX_taskKey)
                  20004d84    00000004     (.common:uart)
                  20004d88    00000001     rf_multiMode_cc13x2.aem4f : RFCC26X2_multiMode.c.cc13x2.ccs.o (.bss)
                  20004d89    00000001     (.common:driverlib_release_0_55938)

.data      0    20004d90    0000070a     UNINITIALIZED
                  20004d90    00000110     drivers_cc13x2.aem4f : PowerCC26X2.oem4f (.data:PowerCC26X2_module)
                  20004ea0    0000010c     release_pem4f.oem4f (.data:ROM_stateStruct)
                  20004fac    00000088     rom_sysbios.aem4f : rom_sysbios.obj (.data:$O1$$)
                  20005034    00000082     ti_radio_config.obj (.data:txPowerTable)
                  200050b6    00000002     release_pem4f.oem4f (.data:ti_sysbios_family_arm_m3_Hwi_Module_State_0_excActive__A)
                  200050b8    00000054     release_pem4f.oem4f (.data:ti_sysbios_gates_GateMutex_Object__table__V)
                  2000510c    0000004c     release_pem4f.oem4f (.data:ti_sysbios_knl_Task_Object__table__V)
                  20005158    00000048     release_pem4f.oem4f (.data:ti_sysbios_family_arm_cc26xx_Timer_Object__table__V)
                  200051a0    00000040     EasyLink.obj (.data:addrFilterTable)
                  200051e0    00000030     ti_radio_config.obj (.data:RF_cmdPropRadioDivSetup)
                  20005210    00000030     ti_radio_config.obj (.data:RF_cmdPropRxAdv)
                  20005240    00000030     release_pem4f.oem4f (.data:ti_sysbios_knl_Swi_Module_State_0_readyQ__A)
                  20005270    00000030     release_pem4f.oem4f (.data:ti_sysbios_knl_Swi_Object__table__V)
                  200052a0    00000030     release_pem4f.oem4f (.data:ti_sysbios_knl_Task_Module_State_0_readyQ__A)
                  200052d0    00000024     ti_easylink_config.obj (.data:EasyLink_supportedPhys)
                  200052f4    00000020     release_pem4f.oem4f (.data:ti_sysbios_knl_Clock_Object__table__V)
                  20005314    00000020     release_pem4f.oem4f (.data:xdc_runtime_Error_IgnoreBlock)
                  20005334    0000001b     EasyLink.obj (.data)
                  2000534f    00000001     drivers_cc13x2.aem4f : UART.oem4f (.data)
                  20005350    00000018     ti_radio_config.obj (.data:RF_cmdFs)
                  20005368    00000018     ti_radio_config.obj (.data:RF_cmdPropTx)
                  20005380    00000018     ti_radio_config.obj (.data:pOverrides)
                  20005398    00000018     release_pem4f.oem4f (.data:ti_sysbios_family_arm_m3_Hwi_Object__table__V)
                  200053b0    00000018     release_pem4f.oem4f (.data:ti_sysbios_heaps_HeapMem_Object__table__V)
                  200053c8    00000014     ti_radio_config.obj (.data:pOverridesTx20)
                  200053dc    00000014     ti_radio_config.obj (.data:pOverridesTxStd)
                  200053f0    00000010     ti_radio_config.obj (.data:RF_prop)
                  20005400    0000000c     rfEasyLinkTx.obj (.data:pinTable)
                  2000540c    00000008     rtsv7M4_T_le_v4SPD16_eabi.lib : _lock.c.obj (.data:$O1$$)
                  20005414    00000008     drivers_cc13x2.aem4f : PINCC26XX.oem4f (.data)
                  2000541c    00000008     release_pem4f.oem4f (.data:ti_sysbios_family_arm_m3_Hwi_Module__root__V)
                  20005424    00000008     release_pem4f.oem4f (.data:ti_sysbios_gates_GateHwi_Module__root__V)
                  2000542c    00000008     release_pem4f.oem4f (.data:ti_sysbios_gates_GateMutex_Module__root__V)
                  20005434    00000008     release_pem4f.oem4f (.data:ti_sysbios_hal_Hwi_Module__root__V)
                  2000543c    00000008     release_pem4f.oem4f (.data:ti_sysbios_heaps_HeapMem_Module__root__V)
                  20005444    00000008     release_pem4f.oem4f (.data:ti_sysbios_knl_Clock_Module__root__V)
                  2000544c    00000008     release_pem4f.oem4f (.data:ti_sysbios_knl_Event_Module__root__V)
                  20005454    00000008     release_pem4f.oem4f (.data:ti_sysbios_knl_Mailbox_Module__root__V)
                  2000545c    00000008     release_pem4f.oem4f (.data:ti_sysbios_knl_Queue_Module__root__V)
                  20005464    00000008     release_pem4f.oem4f (.data:ti_sysbios_knl_Semaphore_Module__root__V)
                  2000546c    00000008     release_pem4f.oem4f (.data:ti_sysbios_knl_Swi_Module__root__V)
                  20005474    00000008     release_pem4f.oem4f (.data:ti_sysbios_knl_Task_Module__root__V)
                  2000547c    00000008     release_pem4f.oem4f (.data:xdc_runtime_System_Module_State_0_atexitHandlers__A)
                  20005484    00000004     rtsv7M4_T_le_v4SPD16_eabi.lib : rand.c.obj (.data)
                  20005488    00000004                                   : stkdepth_vars.c.obj (.data)
                  2000548c    00000004     release_pem4f.oem4f (.data:ti_sysbios_family_arm_m3_Hwi_Module_State_0_excContext__A)
                  20005490    00000004     release_pem4f.oem4f (.data:ti_sysbios_family_arm_m3_Hwi_Module_State_0_excStack__A)
                  20005494    00000004     release_pem4f.oem4f (.data:ti_sysbios_knl_Task_Module_State_0_idleTask__A)
                  20005498    00000001     rf_multiMode_cc13x2.aem4f : rf_patch_cpe_multi_protocol.c.cc13x2.ccs.o (.data)
                  20005499    00000001     ti_drivers_config.obj (.data)

.stack     0    20013c00    00000400     UNINITIALIZED
                  20013c00    00000400     --HOLE--

.priheap   0    20000110    00004000     UNINITIALIZED
                  20000110    00004000     --HOLE--

.data:xdcRomConstPtr 
*          0    20000100    00000004     UNINITIALIZED
                  20000100    00000004     release_pem4f.oem4f (.data:xdcRomConstPtr)

.data:xdcRomExternFuncPtr 
*          0    20000104    00000004     UNINITIALIZED
                  20000104    00000004     release_pem4f.oem4f (.data:xdcRomExternFuncPtr)

.data:xdcRomStatePtr 
*          0    20000108    00000004     UNINITIALIZED
                  20000108    00000004     release_pem4f.oem4f (.data:xdcRomStatePtr)

.bootVecs 
*          0    00000000    00000008     DSECT
                  00000000    00000008     boot.aem4f : boot.oem4f (.bootVecs)

.resetVecs 
*          0    00000000    0000003c     
                  00000000    0000003c     release_pem4f.oem4f (.resetVecs)

.vecs      0    20000000    000000d8     NOLOAD SECTION
                  20000000    000000d8     release_pem4f.oem4f (.vecs)

xdc.meta   0    00000000    00000130     COPY SECTION
                  00000000    00000130     release_pem4f.oem4f (xdc.meta)

xdc.noload 
*          0    00000000    00000000     COPY SECTION

.text      0    0000003c    00007a08     
                  0000003c    000006f0     EasyLink.obj (.text:EasyLink_init)
                  0000072c    0000049c     rf_multiMode_cc13x2.aem4f : RFCC26X2_multiMode.c.cc13x2.ccs.o (.text:RF_fsmActiveState)
                  00000bc8    000002b0     EasyLink.obj (.text:EasyLink_transmit)
                  00000e78    0000025c     rf_multiMode_cc13x2.aem4f : RFCC26X2_multiMode.c.cc13x2.ccs.o (.text:RF_open)
                  000010d4    00000204                               : RFCC26X2_multiMode.c.cc13x2.ccs.o (.text:RF_scheduleCmd)
                  000012d8    000001c4     drivers_cc13x2.aem4f : PINCC26XX.oem4f (.text:PIN_init)
                  0000149c    000001b6     rtsv7M4_T_le_v4SPD16_eabi.lib : fd_add_t2.asm.obj (.text)
                  00001652    00000002     rf_multiMode_cc13x2.aem4f : rfc.c.cc13x2.ccs.o (.text:NOROM_RFCCpePatchReset)
                  00001654    000001a8     drivers_cc13x2.aem4f : PowerCC26X2.oem4f (.text:Power_sleep)
                  000017fc    000001a4     rom_sysbios.aem4f : rom_sysbios.obj (.text:mq_open)
                  000019a0    00000190     rf_multiMode_cc13x2.aem4f : RFCC26X2_multiMode.c.cc13x2.ccs.o (.text:RF_dispatchNextCmd)
                  00001b30    00000190     drivers_cc13x2.aem4f : PowerCC26X2_calibrateRCOSC.oem4f (.text:calibrateRcoscHf1)
                  00001cc0    00000190     ti_drivers_config.obj (.text:rfDriverCallback)
                  00001e50    0000018c     drivers_cc13x2.aem4f : PowerCC26X2.oem4f (.text:Power_init)
                  00001fdc    0000018c                          : PowerCC26X2_calibrateRCOSC.oem4f (.text:runCalibrateFsm)
                  00002168    00000188     release_pem4f.oem4f (.text:xdc_runtime_System_printfExtend__I)
                  000022f0    00000164     drivers_cc13x2.aem4f : UARTCC26XX.oem4f (.text:UARTCC26XX_open)
                  00002454    00000154     rf_multiMode_cc13x2.aem4f : RFCC26X2_multiMode.c.cc13x2.ccs.o (.text:RF_initRadioSetup)
                  000025a8    00000154     drivers_cc13x2.aem4f : UARTCC26XX.oem4f (.text:UARTCC26XX_hwiIntFxn)
                  000026fc    00000148     rf_multiMode_cc13x2.aem4f : RFCC26X2_multiMode.c.cc13x2.ccs.o (.text:RF_fsmSetupState)
                  00002844    00000140                               : RFCC26X2_multiMode.c.cc13x2.ccs.o (.text:RF_close)
                  00002984    0000013a     drivers_cc13x2.aem4f : UARTCC26XX.oem4f (.text:UARTCC26XX_read)
                  00002abe    00000002     rf_multiMode_cc13x2.aem4f : RFCC26X2_multiMode.c.cc13x2.ccs.o (.text:RF_defaultCallback)
                  00002ac0    00000138     rfEasyLinkTx.obj (.text:rfEasyLinkTxFnx)
                  00002bf8    00000134     rf_multiMode_cc13x2.aem4f : RFCC26X2_multiMode.c.cc13x2.ccs.o (.text:RF_abortCmd)
                  00002d2c    00000120                               : RFCC26X2_multiMode.c.cc13x2.ccs.o (.text:RF_radioOpDoneCb)
                  00002e4c    00000112                               : RFCC26X2_multiMode.c.cc13x2.ccs.o (.text:RF_decodeOverridePointers)
                  00002f5e    00000002     rtsv7M4_T_le_v4SPD16_eabi.lib : _lock.c.obj (.text:_nop)
                  00002f60    00000100     drivers_cc13x2.aem4f : PowerCC26X2.oem4f (.text:configureXOSCHF)
                  00003060    00000100     main_tirtos.obj (.text:main)
                  00003160    000000fc     driverlib.lib : sys_ctrl.obj (.text:NOROM_SysCtrlStandby)
                  0000325c    000000fc     rf_multiMode_cc13x2.aem4f : RFCC26X2_multiMode.c.cc13x2.ccs.o (.text:RF_hwiCpe0Active)
                  00003358    000000fc     rtsv7M4_T_le_v4SPD16_eabi.lib : fd_mul_t2.asm.obj (.text)
                  00003454    000000f8     drivers_cc13x2.aem4f : PINCC26XX.oem4f (.text:PINCC26XX_setIoCfg)
                  0000354c    000000f0     rf_multiMode_cc13x2.aem4f : RFCC26X2_multiMode.c.cc13x2.ccs.o (.text:RF_fsmPowerUpState)
                  0000363c    000000ec     rom_sysbios.aem4f : rom_sysbios.obj (.text:pthread_create)
                  00003728    000000e0     drivers_cc13x2.aem4f : UARTCC26XX.oem4f (.text:UARTCC26XX_write)
                  00003808    000000d8     rf_multiMode_cc13x2.aem4f : RFCC26X2_multiMode.c.cc13x2.ccs.o (.text:RF_postCmd)
                  000038e0    000000d4                               : RFCC26X2_multiMode.c.cc13x2.ccs.o (.text:RF_pendCmd)
                  000039b4    000000d2                               : RFCC26X2_multiMode.c.cc13x2.ccs.o (.text:RF_updatePaConfiguration)
                  00003a86    00000002     drivers_cc13x2.aem4f : PowerCC26X2.oem4f (.text:emptyClockFunc)
                  00003a88    000000d0     rf_multiMode_cc13x2.aem4f : RFCC26X2_multiMode.c.cc13x2.ccs.o (.text:RF_swiHw)
                  00003b58    000000cc     uartThread.obj (.text:uartThread)
                  00003c24    000000c8     drivers_cc13x2.aem4f : PowerCC26X2.oem4f (.text:Power_releaseDependency)
                  00003cec    000000c8     rf_multiMode_cc13x2.aem4f : RFCC26X2_multiMode.c.cc13x2.ccs.o (.text:RF_hwiTempLimit)
                  00003db4    000000c4     drivers_cc13x2.aem4f : PowerCC26X2.oem4f (.text:Power_setDependency)
                  00003e78    000000c0                          : UARTCC26XX.oem4f (.text:UARTCC26XX_initIO)
                  00003f38    000000b8                          : UARTCC26XX.oem4f (.text:UARTCC26XX_initHw)
                  00003ff0    000000b4     dpl_cc13x2.aem4f : PowerCC26X2_tirtos.oem4f (.text:PowerCC26XX_standbyPolicy)
                  000040a4    000000ac     drivers_cc13x2.aem4f : PINCC26XX.oem4f (.text:PIN_open)
                  00004150    000000ac     driverlib.lib : setup.obj (.text:TrimAfterColdResetWakeupFromShutDown)
                  000041fc    000000a4     rf_multiMode_cc13x2.aem4f : RFCC26X2_multiMode.c.cc13x2.ccs.o (.text:RF_ratRestartChannels)
                  000042a0    000000a0     rfEasyLinkTx.obj (.text:RXSetup)
                  00004340    000000a0     auto_init.aem4f : auto_init.oem4f (.text)
                  000043e0    000000a0     rom_sysbios.aem4f : rom_sysbios.obj (.text:ti_sysbios_knl_Task_setPri__E)
                  00004480    0000009c     rf_multiMode_cc13x2.aem4f : RFCC26X2_multiMode.c.cc13x2.ccs.o (.text:RF_calculateDispatchTime)
                  0000451c    0000009c     rtsv7M4_T_le_v4SPD16_eabi.lib : memcpy_t2.asm.obj (.text)
                  000045b8    00000098     driverlib.lib : setup.obj (.text:NOROM_SetupTrimDevice)
                  00004650    00000098     drivers_cc13x2.aem4f : UARTCC26XX.oem4f (.text:writeTxFifoFlush)
                  000046e8    00000096     rtsv7M4_T_le_v4SPD16_eabi.lib : ull_div_t2.asm.obj (.text)
                  0000477e    00000092     drivers_cc13x2.aem4f : UARTCC26XX.oem4f (.text:UARTCC26XX_writeCancel)
                  00004810    00000090     rf_multiMode_cc13x2.aem4f : RFCC26X2_multiMode.c.cc13x2.ccs.o (.text:RF_discardPendCmd)
                  000048a0    0000008c                               : RFCC26X2_multiMode.c.cc13x2.ccs.o (.text:RF_cmdDispatchTime)
                  0000492c    00000088     driverlib.lib : osc.obj (.text:NOROM_OSCHF_AttemptToSwitchToXosc)
                  000049b4    00000088     rf_multiMode_cc13x2.aem4f : RFCC26X2_multiMode.c.cc13x2.ccs.o (.text:RF_getTxPower)
                  00004a3c    00000088     rom_sysbios.aem4f : rom_sysbios.obj (.text:_pthread_removeThreadKeys)
                  00004ac4    00000088     drivers_cc13x2.aem4f : PowerCC26X2_calibrateRCOSC.oem4f (.text:calibrateRcoscHf2)
                  00004b4c    00000088                          : PowerCC26X2.oem4f (.text:disableLFClockQualifiers)
                  00004bd4    00000088                          : PowerCC26X2_calibrateRCOSC.oem4f (.text:updateSubSecInc)
                  00004c5c    00000086     rtsv7M4_T_le_v4SPD16_eabi.lib : fd_cmp_t2.asm.obj (.text:__aeabi_cdcmple)
                  00004ce2    00000086                                   : fd_cmp_t2.asm.obj (.text:__aeabi_cdrcmple)
                  00004d68    00000084     CC1352P1_LAUNCHXL_fxns.obj (.text:CC1352P1_LAUNCHXL_sendExtFlashByte)
                  00004dec    00000084     rf_multiMode_cc13x2.aem4f : RFCC26X2_multiMode.c.cc13x2.ccs.o (.text:RF_issueRadioFreeCb)
                  00004e70    00000084                               : RFCC26X2_multiMode.c.cc13x2.ccs.o (.text:RF_verifyGap)
                  00004ef4    00000084     drivers_cc13x2.aem4f : UARTCC26XX.oem4f (.text:UARTCC26XX_close)
                  00004f78    00000084     rom_sysbios.aem4f : rom_sysbios.obj (.text:ti_sysbios_family_arm_m3_Hwi_excHandlerMin__I)
                  00004ffc    00000080                       : rom_sysbios.obj (.text:ti_sysbios_family_arm_cc26xx_Timer_start__E)
                  0000507c    0000007c     rf_multiMode_cc13x2.aem4f : RFCC26X2_multiMode.c.cc13x2.ccs.o (.text:RF_ratFreeChannel)
                  000050f8    0000007a     rtsv7M4_T_le_v4SPD16_eabi.lib : memset_t2.asm.obj (.text)
                  00005172    00000002                                   : div0.asm.obj (.text)
                  00005174    00000074     drivers_cc13x2.aem4f : PowerCC26X2_calibrateRCOSC.oem4f (.text:PowerCC26X2_auxISR)
                  000051e8    00000072     rf_multiMode_cc13x2.aem4f : RFCC26X2_multiMode.c.cc13x2.ccs.o (.text:RF_detachOverrides)
                  0000525a    00000070                               : rfc.c.cc13x2.ccs.o (.text:NOROM_RFCAnaDivTxOverride)
                  000052ca    00000002     release_pem4f.oem4f (.text:ti_sysbios_BIOS_nullFunc__I)
                  000052cc    00000070     rf_multiMode_cc13x2.aem4f : RFCC26X2_multiMode.c.cc13x2.ccs.o (.text:RF_hwiHw)
                  0000533c    0000006e                               : RFCC26X2_multiMode.c.cc13x2.ccs.o (.text:RF_attachOverrides)
                  000053aa    0000006e                               : RFCC26X2_multiMode.c.cc13x2.ccs.o (.text:RF_howToSchedule)
                  00005418    0000006e     rtsv7M4_T_le_v4SPD16_eabi.lib : ll_div_t2.asm.obj (.text)
                  00005486    00000002     rom_sysbios.aem4f : rom_sysbios.obj (.text:xdc_runtime_SysCallback_defaultAbort)
                  00005488    0000006d                       : rom_sysbios.obj (.text:xdc_runtime_System_formatNum__I)
                  000054f5    00000001     --HOLE-- [fill = 0]
                  000054f6    00000002                       : rom_sysbios.obj (.text:xdc_runtime_SysCallback_defaultExit)
                  000054f8    0000006c     rf_multiMode_cc13x2.aem4f : RFCC26X2_multiMode.c.cc13x2.ccs.o (.text:RF_getCurrentTime)
                  00005564    00000068     driverlib.lib : osc.obj (.text:NOROM_OSCHF_SwitchToRcOscTurnOffXosc)
                  000055cc    00000068                   : sys_ctrl.obj (.text:NOROM_SysCtrlSetRechargeBeforePowerDown)
                  00005634    00000068     rtsv7M4_T_le_v4SPD16_eabi.lib : copy_decompress_lzss.c.obj (.text:decompress:lzss:__TI_decompress_lzss)
                  0000569c    00000064     driverlib.lib : osc.obj (.text:NOROM_OSC_HPOSCRtcCompensate)
                  00005700    00000064     rf_multiMode_cc13x2.aem4f : RFCC26X2_multiMode.c.cc13x2.ccs.o (.text:RF_dispatchNextEvent)
                  00005764    00000064     drivers_cc13x2.aem4f : UARTCC26XX.oem4f (.text:UARTCC26XX_control)
                  000057c8    00000062                          : UARTCC26XX.oem4f (.text:UARTCC26XX_swiIntFxn)
                  0000582a    00000002     rom_sysbios.aem4f : rom_sysbios.obj (.text:xdc_runtime_SysCallback_defaultFlush)
                  0000582c    00000060     rf_multiMode_cc13x2.aem4f : RFCC26X2_multiMode.c.cc13x2.ccs.o (.text:RF_applyRfCorePatch)
                  0000588c    00000060     EasyLink.obj (.text:calculateCmdTime)
                  000058ec    00000060     rf_multiMode_cc13x2.aem4f : rf_patch_cpe_multi_protocol.c.cc13x2.ccs.o (.text:configureMultiProtocolPatch)
                  0000594c    0000005c     drivers_cc13x2.aem4f : PINCC26XX.oem4f (.text:PIN_remove)
                  000059a8    0000005c     rf_multiMode_cc13x2.aem4f : RFCC26X2_multiMode.c.cc13x2.ccs.o (.text:RF_syncCb)
                  00005a04    0000005c     rom_sysbios.aem4f : rom_sysbios.obj (.text:ti_sysbios_heaps_HeapMem_initPrimary__I)
                  00005a60    0000005c     release_pem4f.oem4f (.text:xdc_runtime_Startup_getState__I)
                  00005abc    0000005a     EasyLink.obj (.text:createTxAdvFromTx)
                  00005b16    00000002     rom_sysbios.aem4f : rom_sysbios.obj (.text:xdc_runtime_SysCallback_defaultPutch)
                  00005b18    00000058     drivers_cc13x2.aem4f : PowerCC26X2_calibrateRCOSC.oem4f (.text:PowerCC26X2_initiateCalibration)
                  00005b70    00000058     rf_multiMode_cc13x2.aem4f : RFCC26X2_multiMode.c.cc13x2.ccs.o (.text:RF_fsmXOSCState)
                  00005bc8    00000058                               : RFCC26X2_multiMode.c.cc13x2.ccs.o (.text:RF_hwiCpe0PowerFsm)
                  00005c20    00000058     boot.aem4f : boot.oem4f (.text)
                  00005c78    00000058     rom_sysbios.aem4f : rom_sysbios.obj (.text:pthread_exit)
                  00005cd0    00000056     rf_multiMode_cc13x2.aem4f : RFCC26X2_multiMode.c.cc13x2.ccs.o (.text:RF_defaultSubmitPolicy)
                  00005d26    00000002     --HOLE-- [fill = 0]
                  00005d28    00000054     driverlib.lib : chipinfo.obj (.text:NOROM_ChipInfo_GetChipType)
                  00005d7c    00000050     dpl_cc13x2.aem4f : ClockP_tirtos.oem4f (.text:ClockP_construct)
                  00005dcc    00000050     rf_multiMode_cc13x2.aem4f : RFCC26X2_multiMode.c.cc13x2.ccs.o (.text:RF_wakeupNotification)
                  00005e1c    00000050     rom_sysbios.aem4f : rom_sysbios.obj (.text:mq_send)
                  00005e6c    0000004c     CC1352P1_LAUNCHXL_fxns.obj (.text:CC1352P1_LAUNCHXL_wakeUpExtFlash)
                  00005eb8    0000004c     drivers_cc13x2.aem4f : UARTCC26XX.oem4f (.text:UARTCC26XX_readCancel)
                  00005f04    0000004c     rtsv7M4_T_le_v4SPD16_eabi.lib : cpy_tbl.c.obj (.text:copy_in)
                  00005f50    0000004c     drivers_cc13x2.aem4f : UARTCC26XX.oem4f (.text:startTxFifoEmptyClk)
                  00005f9c    0000004c                          : PowerCC26X2.oem4f (.text:switchXOSCHF)
                  00005fe8    00000048     rf_multiMode_cc13x2.aem4f : rfc.c.cc13x2.ccs.o (.text:NOROM_RFCSynthPowerDown)
                  00006030    00000048     drivers_cc13x2.aem4f : PINCC26XX.oem4f (.text:PIN_setOutputEnable)
                  00006078    00000048                          : PowerCC26X2_calibrateRCOSC.oem4f (.text:PowerCC26X2_RCOSC_clockFunc)
                  000060c0    00000048                          : PowerCC26X2.oem4f (.text:PowerCC26XX_switchXOSC_HF)
                  00006108    00000048     rtsv7M4_T_le_v4SPD16_eabi.lib : fd_toi_t2.asm.obj (.text)
                  00006150    00000048     drivers_cc13x2.aem4f : UARTCC26XX.oem4f (.text:writeFinishedDoCallback)
                  00006198    00000046                          : RingBuf.oem4f (.text:RingBuf_put)
                  000061de    00000002     --HOLE-- [fill = 0]
                  000061e0    00000044     driverlib.lib : chipinfo.obj (.text:NOROM_ChipInfo_GetHwRevision)
                  00006224    00000044     drivers_cc13x2.aem4f : PINCC26XX.oem4f (.text:PIN_swi)
                  00006268    00000044                          : UART.oem4f (.text:UART_init)
                  000062ac    00000044     rtsv7M4_T_le_v4SPD16_eabi.lib : fd_tou_t2.asm.obj (.text)
                  000062f0    00000040     CC1352P1_LAUNCHXL_fxns.obj (.text:CC1352P1_LAUNCHXL_shutDownExtFlash)
                  00006330    00000040     drivers_cc13x2.aem4f : PowerCC26X2.oem4f (.text:PowerCC26XX_isStableXOSC_HF)
                  00006370    00000040                          : RingBuf.oem4f (.text:RingBuf_get)
                  000063b0    00000040                          : UART.oem4f (.text:UART_open)
                  000063f0    00000040     rtsv7M4_T_le_v4SPD16_eabi.lib : u_divt2.asm.obj (.text)
                  00006430    00000040     rom_sysbios.aem4f : rom_sysbios.obj (.text:ti_sysbios_family_arm_cc26xx_Timer_setThreshold__I)
                  00006470    0000003e     dpl_cc13x2.aem4f : HwiP_tirtos.oem4f (.text:HwiP_construct)
                  000064ae    00000002     --HOLE-- [fill = 0]
                  000064b0    0000003c     drivers_cc13x2.aem4f : PINCC26XX.oem4f (.text:PIN_setOutputValue)
                  000064ec    0000003c     rf_multiMode_cc13x2.aem4f : RFCC26X2_multiMode.c.cc13x2.ccs.o (.text:RF_cmdGet)
                  00006528    0000003c                               : RFCC26X2_multiMode.c.cc13x2.ccs.o (.text:RF_cmdStoreEvents)
                  00006564    0000003c     dpl_cc13x2.aem4f : SwiP_tirtos.oem4f (.text:SwiP_construct)
                  000065a0    0000003c     ti_drivers_config.obj (.text:initRfFrontend)
                  000065dc    0000003c     rom_sysbios.aem4f : rom_sysbios.obj (.text:ti_sysbios_family_arm_m3_Hwi_construct2__E)
                  00006618    00000038     driverlib.lib : osc.obj (.text:NOROM_OSC_HPOSCRelativeFrequencyOffsetGet)
                  00006650    00000038     drivers_cc13x2.aem4f : PINCC26XX.oem4f (.text:PIN_setConfig)
                  00006688    00000038     rf_multiMode_cc13x2.aem4f : RFCC26X2_multiMode.c.cc13x2.ccs.o (.text:RF_checkCmdFsError)
                  000066c0    00000038                               : RFCC26X2_multiMode.c.cc13x2.ccs.o (.text:RF_powerConstraintRelease)
                  000066f8    00000038     rom_sysbios.aem4f : rom_sysbios.obj (.text:mq_receive)
                  00006730    00000038     drivers_cc13x2.aem4f : PowerCC26X2.oem4f (.text:notify)
                  00006768    00000038                          : UARTCC26XX.oem4f (.text:readData)
                  000067a0    00000038     rtsv7M4_T_le_v4SPD16_eabi.lib : fs_tod_t2.asm.obj (.text)
                  000067d8    00000038     drivers_cc13x2.aem4f : UARTCC26XX.oem4f (.text:writeData)
                  00006810    00000036     rom_sysbios.aem4f : rom_sysbios.obj (.text:ti_sysbios_family_arm_cc26xx_Timer_setNextTick__E)
                  00006846    00000002     --HOLE-- [fill = 0]
                  00006848    00000034     driverlib.lib : aux_sysif.obj (.text:NOROM_AUXSYSIFOpModeChange)
                  0000687c    00000034                   : sys_ctrl.obj (.text:NOROM_SysCtrlIdle)
                  000068b0    00000034     rf_multiMode_cc13x2.aem4f : RFCC26X2_multiMode.c.cc13x2.ccs.o (.text:RF_runDirectImmediateCmd)
                  000068e4    00000034     rtsv7M4_T_le_v4SPD16_eabi.lib : rand.c.obj (.text:rand)
                  00006918    00000034     drivers_cc13x2.aem4f : UARTCC26XX.oem4f (.text:readData2RingBuf)
                  0000694c    00000030                          : PINCC26XX.oem4f (.text:PINCC26XX_setMux)
                  0000697c    00000030                          : PowerCC26X2.oem4f (.text:Power_releaseConstraint)
                  000069ac    00000030                          : PowerCC26X2.oem4f (.text:Power_setConstraint)
                  000069dc    00000030     rf_multiMode_cc13x2.aem4f : rf_patch_cpe_multi_protocol.c.cc13x2.ccs.o (.text:applyMultiProtocolPatch)
                  00006a0c    00000030     release_pem4f.oem4f (.text:ti_sysbios_BIOS_atExitFunc__I)
                  00006a3c    00000030     release_pem4f.oem4f (.text:ti_sysbios_BIOS_startFunc__I)
                  00006a6c    00000030     rom_sysbios.aem4f : rom_sysbios.obj (.text:ti_sysbios_family_arm_cc26xx_Timer_getCurrentTick__E)
                  00006a9c    00000030                       : rom_sysbios.obj (.text:ti_sysbios_family_arm_cc26xx_Timer_initDevice__I)
                  00006acc    0000002e     rf_multiMode_cc13x2.aem4f : RFCC26X2_multiMode.c.cc13x2.ccs.o (.text:RF_queueEnd)
                  00006afa    0000002e     rtsv7M4_T_le_v4SPD16_eabi.lib : i_tofd_t2.asm.obj (.text)
                  00006b28    0000002c     rf_multiMode_cc13x2.aem4f : RFCC26X2_multiMode.c.cc13x2.ccs.o (.text:RF_executeDirectImmediateCmd)
                  00006b54    0000002c     dpl_cc13x2.aem4f : SemaphoreP_tirtos.oem4f (.text:SemaphoreP_constructBinary)
                  00006b80    0000002c     rom_sysbios.aem4f : rom_sysbios.obj (.text:_pthread_delete$45)
                  00006bac    0000002c                       : rom_sysbios.obj (.text:pthread_setcancelstate)
                  00006bd8    0000002c                       : rom_sysbios.obj (.text:ti_sysbios_knl_Clock_getTicksUntilInterrupt__E)
                  00006c04    0000002c     uartThread.obj (.text:uartsendThread)
                  00006c30    0000002a     drivers_cc13x2.aem4f : List.oem4f (.text:List_insert)
                  00006c5a    0000002a     rf_multiMode_cc13x2.aem4f : RFCC26X2_multiMode.c.cc13x2.ccs.o (.text:RF_searchAndReplacePAOverride)
                  00006c84    0000002a     rom_sysbios.aem4f : rom_sysbios.obj (.text:ti_sysbios_knl_Clock_getTimeout__E)
                  00006cae    00000002     --HOLE-- [fill = 0]
                  00006cb0    00000028     driverlib.lib : osc.obj (.text:NOROM_OSCHF_TurnOnXosc)
                  00006cd8    00000028     rf_multiMode_cc13x2.aem4f : rfc.c.cc13x2.ccs.o (.text:NOROM_RFCOverrideSearch)
                  00006d00    00000028     drivers_cc13x2.aem4f : PowerCC26X2.oem4f (.text:Power_registerNotify)
                  00006d28    00000028     rf_multiMode_cc13x2.aem4f : RFCC26X2_multiMode.c.cc13x2.ccs.o (.text:RF_calculateDeltaTimeUs)
                  00006d50    00000028                               : RFCC26X2_multiMode.c.cc13x2.ccs.o (.text:RF_runCmd)
                  00006d78    00000028     rom_sysbios.aem4f : rom_sysbios.obj (.text:findInList$44)
                  00006da0    00000028     drivers_cc13x2.aem4f : PowerCC26X2.oem4f (.text:oscillatorISR)
                  00006dc8    00000026                          : List.oem4f (.text:List_put)
                  00006dee    00000026                          : List.oem4f (.text:List_putHead)
                  00006e14    00000026                          : List.oem4f (.text:List_remove)
                  00006e3a    00000002     --HOLE-- [fill = 0]
                  00006e3c    00000024     rf_multiMode_cc13x2.aem4f : rfc.c.cc13x2.ccs.o (.text:NOROM_RFCDoorbellSendTo)
                  00006e60    00000024     ti_drivers_config.obj (.text:PINCC26XX_setOutputValue)
                  00006e84    00000024     rf_multiMode_cc13x2.aem4f : RFCC26X2_multiMode.c.cc13x2.ccs.o (.text:RF_cmdAlloc)
                  00006ea8    00000024                               : RFCC26X2_multiMode.c.cc13x2.ccs.o (.text:RF_invokeGlobalCallback)
                  00006ecc    00000024     rom_sysbios.aem4f : rom_sysbios.obj (.text:_pthread_cleanupFxn)
                  00006ef0    00000024     drivers_cc13x2.aem4f : PowerCC26X2_calibrateRCOSC.oem4f (.text:getTdcSemaphore)
                  00006f14    00000024     rom_sysbios.aem4f : rom_sysbios.obj (.text:pthread_attr_init)
                  00006f38    00000024     release_pem4f.oem4f (.text:ti_sysbios_BIOS_registerRTSLock__I)
                  00006f5c    00000024     release_pem4f.oem4f (.text:ti_sysbios_BIOS_removeRTSLock__I)
                  00006f80    00000024     rom_sysbios.aem4f : rom_sysbios.obj (.text:ti_sysbios_family_arm_cc26xx_Timer_getMaxTicks__E)
                  00006fa4    00000022     drivers_cc13x2.aem4f : List.oem4f (.text:List_get)
                  00006fc6    00000020     dpl_cc13x2.aem4f : HwiP_tirtos.oem4f (.text:HwiP_setFunc)
                  00006fe6    00000002     --HOLE-- [fill = 0]
                  00006fe8    00000020     drivers_cc13x2.aem4f : PINCC26XX.oem4f (.text:PINCC26XX_setIoCfgMux)
                  00007008    00000020                          : PowerCC26X2.oem4f (.text:Power_unregisterNotify)
                  00007028    00000020     rf_multiMode_cc13x2.aem4f : RFCC26X2_multiMode.c.cc13x2.ccs.o (.text:RF_clkPowerUp)
                  00007048    00000020                               : RFCC26X2_multiMode.c.cc13x2.ccs.o (.text:RF_hwiCpe0ChangePhy)
                  00007068    00000020                               : RFCC26X2_multiMode.c.cc13x2.ccs.o (.text:RF_isStateTransitionAllowed)
                  00007088    00000020                               : RFCC26X2_multiMode.c.cc13x2.ccs.o (.text:RF_ratIsRunning)
                  000070a8    00000020     drivers_cc13x2.aem4f : UARTCC26XX.oem4f (.text:threadSafeStdbyDisRelease)
                  000070c8    00000020                          : UARTCC26XX.oem4f (.text:threadSafeStdbyDisSet)
                  000070e8    00000020     release_pem4f.oem4f (.text:ti_sysbios_BIOS_rtsLock__I)
                  00007108    00000020     rom_sysbios.aem4f : rom_sysbios.obj (.text:ti_sysbios_family_arm_cc26xx_Timer_dynamicStub__E)
                  00007128    00000020                       : rom_sysbios.obj (.text:xdc_runtime_Error_policyMin__E)
                  00007148    0000001e     drivers_cc13x2.aem4f : PINCC26XX.oem4f (.text:PIN_close)
                  00007166    0000001e                          : PowerCC26X2.oem4f (.text:Power_getTransitionLatency)
                  00007184    0000001c     ti_drivers_config.obj (.text:Board_init)
                  000071a0    0000001c     driverlib.lib : chipinfo.obj (.text:NOROM_ChipInfo_GetChipFamily)
                  000071bc    0000001c     drivers_cc13x2.aem4f : PINCC26XX.oem4f (.text:PIN_hwi)
                  000071d8    0000001c     dpl_cc13x2.aem4f : PowerCC26X2_tirtos.oem4f (.text:PowerCC26XX_schedulerDisable)
                  000071f4    0000001c                      : PowerCC26X2_tirtos.oem4f (.text:PowerCC26XX_schedulerRestore)
                  00007210    0000001c     rf_multiMode_cc13x2.aem4f : RFCC26X2_multiMode.c.cc13x2.ccs.o (.text:RF_clkInactivityCallback)
                  0000722c    0000001c                               : RFCC26X2_multiMode.c.cc13x2.ccs.o (.text:RF_getPAOverrideOffsetAndValue)
                  00007248    0000001c                               : RFCC26X2_multiMode.c.cc13x2.ccs.o (.text:RF_powerConstraintSet)
                  00007264    0000001c     EasyLink.obj (.text:genActivityTableValue)
                  00007280    0000001c     rom_sysbios.aem4f : rom_sysbios.obj (.text:ti_sysbios_knl_Swi_construct2__E)
                  0000729c    0000001c     release_pem4f.oem4f (.text:xdc_runtime_Startup_exec__I)
                  000072b8    0000001a     drivers_cc13x2.aem4f : PowerCC26X2.oem4f (.text:PowerCC26XX_calibrate)
                  000072d2    00000018     EasyLink.obj (.text:ChipInfo_ChipFamilyIs_CC13x2_CC26x2)
                  000072ea    00000018     EasyLink.obj (.text:ChipInfo_ChipFamilyIs_CC26x0R2)
                  00007302    00000002     --HOLE-- [fill = 0]
                  00007304    00000018     driverlib.lib : chipinfo.obj (.text:NOROM_ChipInfo_GetPackageType)
                  0000731c    00000018     drivers_cc13x2.aem4f : PowerCC26X2.oem4f (.text:Power_idleFunc)
                  00007334    00000018     rf_multiMode_cc13x2.aem4f : RFCC26X2_multiMode.c.cc13x2.ccs.o (.text:RF_ScheduleCmdParams_init)
                  0000734c    00000018                               : RFCC26X2_multiMode.c.cc13x2.ccs.o (.text:RF_swiFsm)
                  00007364    00000018     drivers_cc13x2.aem4f : UART.oem4f (.text:UART_Params_init)
                  0000737c    00000018     rtsv7M4_T_le_v4SPD16_eabi.lib : args_main.c.obj (.text:_args_main)
                  00007394    00000018                                   : ll_mul_t2.asm.obj (.text)
                  000073ac    00000018                                   : strcmp.c.obj (.text:strcmp)
                  000073c4    00000018     release_pem4f.oem4f (.text:ti_sysbios_BIOS_rtsUnlock__I)
                  000073dc    00000018     rom_sysbios.aem4f : rom_sysbios.obj (.text:ti_sysbios_knl_Swi_or__E)
                  000073f4    00000018                       : rom_sysbios.obj (.text:ti_sysbios_rts_ti_ReentSupport_getReent__F)
                  0000740c    00000018                       : rom_sysbios.obj (.text:xdc_runtime_Error_init__E)
                  00007424    00000016     EasyLink.obj (.text:ChipInfo_ChipFamilyIs_CC26x0)
                  0000743a    00000016     driverlib.lib : chipinfo.obj (.text:NOROM_ThisLibraryIsFor_CC13x2_CC26x2_HwRev20AndLater_HaltIfViolated)
                  00007450    00000016     rf_multiMode_cc13x2.aem4f : RFCC26X2_multiMode.c.cc13x2.ccs.o (.text:RF_restartClockTimeout)
                  00007466    00000016     rom_sysbios.aem4f : rom_sysbios.obj (.text:_pthread_cleanup_pop)
                  0000747c    00000016     release_pem4f.oem4f (.text:ti_sysbios_BIOS_exitFunc__I)
                  00007492    00000016     EasyLink.obj (.text:ti_sysbios_knl_Semaphore_Params_init)
                  000074a8    00000014     EasyLink.obj (.text:EasyLink_Params_init)
                  000074bc    00000014     drivers_cc13x2.aem4f : List.oem4f (.text:List_clearList)
                  000074d0    00000014     rf_multiMode_cc13x2.aem4f : rfc.c.cc13x2.ccs.o (.text:NOROM_RFCCpeIntGetAndClear)
                  000074e4    00000014     drivers_cc13x2.aem4f : PINCC26XX.oem4f (.text:PINCC26XX_getOutputValue)
                  000074f8    00000014                          : PowerCC26X2_calibrateRCOSC.oem4f (.text:PowerCC26X2_calibrate)
                  0000750c    00000014     rf_multiMode_cc13x2.aem4f : RFCC26X2_multiMode.c.cc13x2.ccs.o (.text:RF_Params_init)
                  00007520    00000014                               : RFCC26X2_multiMode.c.cc13x2.ccs.o (.text:RF_dbellSyncOnAck)
                  00007534    00000014                               : RFCC26X2_multiMode.c.cc13x2.ccs.o (.text:RF_ratGetChannel)
                  00007548    00000014                               : rf_patch_cpe_multi_protocol.c.cc13x2.ccs.o (.text:enterMultiProtocolCpeHdPatch)
                  0000755c    00000014     rom_sysbios.aem4f : rom_sysbios.obj (.text:pthread_attr_setschedparam)
                  00007570    00000014     rtsv7M4_T_le_v4SPD16_eabi.lib : strcpy.c.obj (.text:strcpy)
                  00007584    00000014     drivers_cc13x2.aem4f : PowerCC26X2.oem4f (.text:switchToTCXO)
                  00007598    00000014     rom_sysbios.aem4f : rom_sysbios.obj (.text:ti_sysbios_family_arm_cc26xx_Timer_getCount64__E)
                  000075ac    00000014     release_pem4f.oem4f (.text:ti_sysbios_knl_Clock_doTick__I)
                  000075c0    00000012     drivers_cc13x2.aem4f : RingBuf.oem4f (.text:RingBuf_construct)
                  000075d2    00000012     dpl_cc13x2.aem4f : SemaphoreP_tirtos.oem4f (.text:SemaphoreP_pend)
                  000075e4    00000012     rom_sysbios.aem4f : rom_sysbios.obj (.text:_pthread_runStub$45)
                  000075f6    00000010     dpl_cc13x2.aem4f : ClockP_tirtos.oem4f (.text:ClockP_isActive)
                  00007606    00000010                      : HwiP_tirtos.oem4f (.text:HwiP_Params_init)
                  00007616    00000002     --HOLE-- [fill = 0]
                  00007618    00000010     rf_multiMode_cc13x2.aem4f : rfc.c.cc13x2.ccs.o (.text:NOROM_RFCHwIntGetAndClear)
                  00007628    00000010     drivers_cc13x2.aem4f : PINCC26XX.oem4f (.text:PINCC26XX_getPinCount)
                  00007638    00000010     rf_multiMode_cc13x2.aem4f : RFCC26X2_multiMode.c.cc13x2.ccs.o (.text:RF_dbellSubmitCmdAsync)
                  00007648    00000010                               : RFCC26X2_multiMode.c.cc13x2.ccs.o (.text:RF_isClientOwner)
                  00007658    00000010     dpl_cc13x2.aem4f : SwiP_tirtos.oem4f (.text:SwiP_Params_init)
                  00007668    00000010     rom_sysbios.aem4f : rom_sysbios.obj (.text:ti_sysbios_family_arm_m3_Hwi_post__E)
                  00007678    00000010     drivers_cc13x2.aem4f : UARTCC26XX.oem4f (.text:uartPostNotify)
                  00007688    0000000e     rf_multiMode_cc13x2.aem4f : RFCC26X2_multiMode.c.cc13x2.ccs.o (.text:RF_getSwitchingTimeInUs)
                  00007696    0000000e     rtsv7M4_T_le_v4SPD16_eabi.lib : copy_decompress_none.c.obj (.text:decompress:none:__TI_decompress_none)
                  000076a4    0000000e     rom_sysbios.aem4f : rom_sysbios.obj (.text:pthread_attr_setdetachstate)
                  000076b2    0000000e                       : rom_sysbios.obj (.text:ti_sysbios_family_arm_cc26xx_TimestampProvider_get32__E)
                  000076c0    0000000c     driverlib.lib : cpu.obj (.text:NOROM_CPUcpsid)
                  000076cc    0000000c                   : cpu.obj (.text:NOROM_CPUcpsie)
                  000076d8    0000000c     drivers_cc13x2.aem4f : PowerCC26X2.oem4f (.text:Power_getConstraintMask)
                  000076e4    0000000c                          : PowerCC26X2.oem4f (.text:Power_getDependencyCount)
                  000076f0    0000000c     rf_multiMode_cc13x2.aem4f : RFCC26X2_multiMode.c.cc13x2.ccs.o (.text:RF_powerConstraintGet)
                  000076fc    0000000c     rtsv7M4_T_le_v4SPD16_eabi.lib : _lock.c.obj (.text:_register_lock)
                  00007708    0000000c                                   : _lock.c.obj (.text:_register_unlock)
                  00007714    0000000c                                   : copy_zero_init.c.obj (.text:decompress:ZI:__TI_zero_init)
                  00007720    0000000c     rom_sysbios.aem4f : rom_sysbios.obj (.text:pthread_self)
                  0000772c    0000000c                       : rom_sysbios.obj (.text:ti_sysbios_knl_Queue_insert__E)
                  00007738    0000000c                       : rom_sysbios.obj (.text:ti_sysbios_knl_Swi_getTrigger__E)
                  00007744    0000000a     dpl_cc13x2.aem4f : ClockP_tirtos.oem4f (.text:ClockP_Params_init)
                  0000774e    0000000a     drivers_cc13x2.aem4f : UART.oem4f (.text:UART_read)
                  00007758    0000000a                          : UART.oem4f (.text:UART_write)
                  00007762    0000000a     release_pem4f.oem4f (.text:ti_sysbios_rts_ti_ReentSupport_getTlsAddr__I)
                  0000776c    00000008     CC1352P1_LAUNCHXL_fxns.obj (.text:Board_initHook)
                  00007774    00000008     drivers_cc13x2.aem4f : UARTCC26XX.oem4f (.text:UARTCC26XX_init)
                  0000777c    00000008                          : UARTCC26XX.oem4f (.text:readSemCallback)
                  00007784    00000008                          : UARTCC26XX.oem4f (.text:writeSemCallback)
                  0000778c    00000008     release_pem4f.oem4f (.text:xdc_runtime_Text_visitRope__I)
                  00007794    00000006     driverlib.lib : cpu.obj (.text:NOROM_CPUdelay)
                  0000779a    00000006     rf_multiMode_cc13x2.aem4f : RFCC26X2_multiMode.c.cc13x2.ccs.o (.text:RF_clkReqAccess)
                  000077a0    00000006     drivers_cc13x2.aem4f : UARTCC26XX.oem4f (.text:UARTCC26XX_readPolling)
                  000077a6    00000006                          : UARTCC26XX.oem4f (.text:UARTCC26XX_writePolling)
                  000077ac    00000006     rom_sysbios.aem4f : rom_sysbios.obj (.text:pthread_attr_setstacksize)
                  000077b2    00000006                       : rom_sysbios.obj (.text:ti_sysbios_family_arm_m3_Hwi_setFunc__E)
                  000077b8    00000004     dpl_cc13x2.aem4f : PowerCC26X2_tirtos.oem4f (.text:CPUwfi)
                  000077bc    00000004                      : ClockP_tirtos.oem4f (.text:ClockP_destruct)
                  000077c0    00000004                      : ClockP_tirtos.oem4f (.text:ClockP_getCpuFreq)
                  000077c4    00000004                      : ClockP_tirtos.oem4f (.text:ClockP_getTimeout)
                  000077c8    00000004                      : ClockP_tirtos.oem4f (.text:ClockP_setTimeout)
                  000077cc    00000004                      : ClockP_tirtos.oem4f (.text:ClockP_start)
                  000077d0    00000004                      : ClockP_tirtos.oem4f (.text:ClockP_stop)
                  000077d4    00000004                      : HwiP_tirtos.oem4f (.text:HwiP_destruct)
                  000077d8    00000004                      : HwiP_tirtos.oem4f (.text:HwiP_disable)
                  000077dc    00000004                      : HwiP_tirtos.oem4f (.text:HwiP_enableInterrupt)
                  000077e0    00000004                      : HwiP_tirtos.oem4f (.text:HwiP_post)
                  000077e4    00000004     rf_multiMode_cc13x2.aem4f : rfc.c.cc13x2.ccs.o (.text:NOROM_RFCOverrideUpdate)
                  000077e8    00000004                               : RFCC26X2_multiMode.c.cc13x2.ccs.o (.text:RF_defaultConflictPolicy)
                  000077ec    00000004     dpl_cc13x2.aem4f : SemaphoreP_tirtos.oem4f (.text:SemaphoreP_destruct)
                  000077f0    00000004                      : SemaphoreP_tirtos.oem4f (.text:SemaphoreP_post)
                  000077f4    00000004                      : SwiP_tirtos.oem4f (.text:SwiP_destruct)
                  000077f8    00000004                      : SwiP_tirtos.oem4f (.text:SwiP_disable)
                  000077fc    00000004                      : SwiP_tirtos.oem4f (.text:SwiP_getTrigger)
                  00007800    00000004                      : SwiP_tirtos.oem4f (.text:SwiP_or)
                  00007804    00000004     rom_sysbios.aem4f : rom_sysbios.obj (.text:__aeabi_errno_addr)
                  00007808    00000004     drivers_cc13x2.aem4f : PowerCC26X2.oem4f (.text:configureRFCoreClocks)
                  0000780c    00000004                          : PowerCC26X2.oem4f (.text:nopResourceHandler)
                  00007810    00000004     rom_sysbios.aem4f : rom_sysbios.obj (.text:ti_sysbios_knl_Clock_isActive__E)
                  00007814    00000004                       : rom_sysbios.obj (.text:ti_sysbios_knl_Task_getArg1__E)
                  00007818    00000004                       : rom_sysbios.obj (.text:ti_sysbios_knl_Task_getEnv__E)
                  0000781c    00000004     release_pem4f.oem4f (.text:xdc_runtime_Startup_reset__I)
                  00007820    00000004     rom_sysbios.aem4f : rom_sysbios.obj (.text:xdc_runtime_SysCallback_defaultReady)
                  00007824    00000008     (.tramp.ti_sysbios_knl_Swi_destruct.1)
                  0000782c    00000008     (.tramp.ti_sysbios_family_arm_m3_Hwi_enableInterrupt__E.1)
                  00007834    00000008     (.tramp.ti_sysbios_family_arm_m3_Hwi_destruct.1)
                  0000783c    00000008     (.tramp.ti_sysbios_BIOS_getCpuFreq__E.1)
                  00007844    00000008     (.tramp.ti_sysbios_knl_Clock_destruct.1)
                  0000784c    00000008     (.tramp.ti_sysbios_knl_Task_self__E.1)
                  00007854    00000008     (.tramp.ti_sysbios_knl_Clock_logTick__E.1)
                  0000785c    00000008     (.tramp.ti_sysbios_knl_Swi_post__E.1)
                  00007864    00000008     (.tramp.ti_sysbios_BIOS_RtsGateProxy_leave__E.1)
                  0000786c    00000008     (.tramp.ti_sysbios_knl_Swi_construct.1)
                  00007874    00000008     (.tramp.ti_sysbios_BIOS_RtsGateProxy_enter__E.1)
                  0000787c    00000008     (.tramp.ti_sysbios_family_arm_m3_Hwi_disableFxn__E.1)
                  00007884    00000008     (.tramp.ti_sysbios_knl_Clock_getTicks__E.1)
                  0000788c    00000008     (.tramp.ti_sysbios_knl_Clock_TimerProxy_getCurrentTick__E.1)
                  00007894    00000008     (.tramp.ti_sysbios_knl_Task_delete.1)
                  0000789c    00000008     (.tramp.ti_sysbios_knl_Semaphore_destruct.1)
                  000078a4    00000008     (.tramp.ti_sysbios_knl_Task_startup__E.1)
                  000078ac    00000008     (.tramp.ti_sysbios_knl_Swi_startup__E.1)
                  000078b4    00000008     (.tramp.ti_sysbios_hal_Hwi_startup__E.1)
                  000078bc    00000008     (.tramp.ti_sysbios_family_arm_cc26xx_Timer_startup__E.1)
                  000078c4    00000008     (.tramp.xdc_runtime_System_atexit__E.1)
                  000078cc    00000008     (.tramp.ti_sysbios_BIOS_linkedWithIncorrectBootLibrary__E.1)
                  000078d4    00000008     (.tramp.xdc_runtime_Startup_rtsDone__E.1)
                  000078dc    00000008     (.tramp.ti_sysbios_knl_Swi_disable__E.1)
                  000078e4    00000008     (.tramp.ti_sysbios_knl_Mailbox_pend__E.1)
                  000078ec    00000008     (.tramp.ti_sysbios_family_arm_m3_Hwi_construct.1)
                  000078f4    00000008     (.tramp.ti_sysbios_knl_Swi_Params__init__S.1)
                  000078fc    00000008     (.tramp.ti_sysbios_family_arm_m3_Hwi_Params__init__S.1)
                  00007904    00000008     (.tramp.ti_sysbios_knl_Mailbox_post__E.1)
                  0000790c    00000008     (.tramp.ti_sysbios_knl_Clock_construct.1)
                  00007914    00000008     (.tramp.ti_sysbios_knl_Clock_Params__init__S.1)
                  0000791c    00000008     (.tramp.xdc_runtime_System_exit__E.1)
                  00007924    00000008     (.tramp.ti_sysbios_heaps_HeapMem_restore__E.1)
                  0000792c    00000008     (.tramp.ti_sysbios_heaps_HeapMem_Object__get__S.1)
                  00007934    00000008     (.tramp.xdc_runtime_Error_raiseX__E.1)
                  0000793c    00000008     (.tramp.ti_sysbios_BIOS_setThreadType__E.1)
                  00007944    00000008     (.tramp.ti_sysbios_family_arm_m3_Hwi_excFillContext__I.1)
                  0000794c    00000008     (.tramp.ti_sysbios_knl_Queue_next__E.1)
                  00007954    00000008     (.tramp.ti_sysbios_knl_Queue_head__E.1)
                  0000795c    00000008     (.tramp.ti_sysbios_knl_Task_restore__E.1)
                  00007964    00000008     (.tramp.ti_sysbios_knl_Queue_enqueue__E.1)
                  0000796c    00000008     (.tramp.ti_sysbios_knl_Queue_empty__E.1)
                  00007974    00000008     (.tramp.ti_sysbios_knl_Queue_remove__E.1)
                  0000797c    00000008     (.tramp.ti_sysbios_knl_Task_disable__E.1)
                  00007984    00000008     (.tramp.xdc_runtime_Assert_raise__I.1)
                  0000798c    00000008     (.tramp.ti_sysbios_knl_Clock_stop__E.1)
                  00007994    00000008     (.tramp.ti_sysbios_knl_Clock_start__E.1)
                  0000799c    00000008     (.tramp.ti_sysbios_knl_Clock_setTimeout__E.1)
                  000079a4    00000008     (.tramp.ti_sysbios_knl_Task_create.1)
                  000079ac    00000008     (.tramp.ti_sysbios_knl_Semaphore_construct.1)
                  000079b4    00000008     (.tramp.ti_sysbios_knl_Semaphore_Params__init__S.1)
                  000079bc    00000008     (.tramp.ti_sysbios_knl_Queue_construct.1)
                  000079c4    00000008     (.tramp.ti_sysbios_knl_Task_Params__init__S.1)
                  000079cc    00000008     (.tramp.ti_sysbios_BIOS_start__E.1)
                  000079d4    00000008     (.tramp.xdc_runtime_System_abort__E.1)
                  000079dc    00000008     (.tramp.xdc_runtime_System_doPrint__I.1)
                  000079e4    00000008     (.tramp.ti_sysbios_gates_GateMutex_leave__E.1)
                  000079ec    00000008     (.tramp.xdc_runtime_Memory_free__E.1)
                  000079f4    00000008     (.tramp.ti_sysbios_knl_Mailbox_create.1)
                  000079fc    00000008     (.tramp.xdc_runtime_Memory_alloc__E.1)
                  00007a04    00000008     (.tramp.ti_sysbios_gates_GateMutex_enter__E.1)
                  00007a0c    00000008     (.tramp.strlen.1)
                  00007a14    00000008     (.tramp.ti_sysbios_BIOS_getThreadType__E.1)
                  00007a1c    00000008     (.tramp.ti_sysbios_knl_Swi_restore__E.1)
                  00007a24    00000008     (.tramp.ti_sysbios_family_arm_m3_Hwi_restoreFxn__E.1)
                  00007a2c    00000008     (.tramp.ti_sysbios_knl_Semaphore_create.1)
                  00007a34    00000008     (.tramp.ti_sysbios_knl_Semaphore_post__E.1)
                  00007a3c    00000008     (.tramp.ti_sysbios_knl_Semaphore_pend__E.1)

.const     0    00007a44    00000e49     
                  00007a44    00000504     rf_multiMode_cc13x2.aem4f : rf_patch_cpe_multi_protocol.c.cc13x2.ccs.o (.const:$O1$$)
                  00007f48    000003b8     release_pem4f.oem4f (.const:ROM_constStruct)
                  00008300    00000214     release_pem4f.oem4f (.const)
                  00008514    00000090     rfEasyLinkTx.obj (.const:$P$T0$1)
                  000085a4    00000054     drivers_cc13x2.aem4f : PowerCC26X2.oem4f (.const:resourceDB)
                  000085f8    00000048     release_pem4f.oem4f (.const:.string)
                  00008640    00000048     release_pem4f.oem4f (.const:ROM_externFuncPtrs)
                  00008688    00000028     drivers_cc13x2.aem4f : UARTCC26XX.oem4f (.const:UARTCC26XX_fxnTable)
                  000086b0    00000028     ti_drivers_config.obj (.const:uartCC26XXHWAttrs)
                  000086d8    00000024     drivers_cc13x2.aem4f : UART.oem4f (.const:UART_defaultParams)
                  000086fc    00000024     release_pem4f.oem4f (.const:xdc_runtime_Startup_sfxnTab__A)
                  00008720    00000020     ti_drivers_config.obj (.const:BoardGpioInitTable)
                  00008740    00000020     rf_multiMode_cc13x2.aem4f : RFCC26X2_multiMode.c.cc13x2.ccs.o (.const:RF_defaultParams)
                  00008760    00000016     uartThread.obj (.const:.string:$P$T0$1)
                  00008776    00000002     release_pem4f.oem4f (.const:xdc_runtime_Main_Module__id__C)
                  00008778    00000014     CC1352P1_LAUNCHXL_fxns.obj (.const:$P$T1$2)
                  0000878c    00000014     ti_drivers_config.obj (.const:PowerCC26X2_config)
                  000087a0    00000014     drivers_cc13x2.aem4f : UARTCC26XX.oem4f (.const:parityType)
                  000087b4    00000012     release_pem4f.oem4f (.const:xdc_runtime_Startup_sfxnRts__A)
                  000087c6    00000001     ti_drivers_config.obj (.const)
                  000087c7    00000001     ti_easylink_config.obj (.const)
                  000087c8    00000010     ti_drivers_config.obj (.const:$P$T0$2)
                  000087d8    00000010     EasyLink.obj (.const:EasyLink_defaultParams)
                  000087e8    00000010     drivers_cc13x2.aem4f : UARTCC26XX.oem4f (.const:dataLength)
                  000087f8    0000000c     ti_drivers_config.obj (.const:RFCC26XX_hwAttrs)
                  00008804    0000000c     ti_drivers_config.obj (.const:UART_config)
                  00008810    0000000c     release_pem4f.oem4f (.const:xdc_runtime_Startup_firstFxns__A)
                  0000881c    00000008     driverlib.lib : aux_sysif.obj (.const:$O1$$)
                  00008824    00000008     CC1352P1_LAUNCHXL_fxns.obj (.const:$P$T0$1)
                  0000882c    00000008     ti_drivers_config.obj (.const:PINCC26XX_hwAttrs)
                  00008834    00000008     rf_multiMode_cc13x2.aem4f : RFCC26X2_multiMode.c.cc13x2.ccs.o (.const:RFCC26XX_schedulerPolicy)
                  0000883c    00000008     drivers_cc13x2.aem4f : UARTCC26XX.oem4f (.const:stopBits)
                  00008844    00000008     release_pem4f.oem4f (.const:ti_sysbios_family_arm_m3_Hwi_excHookFuncs__A)
                  0000884c    00000008     release_pem4f.oem4f (.const:ti_sysbios_knl_Idle_funcList__A)
                  00008854    00000006     drivers_cc13x2.aem4f : UARTCC26XX.oem4f (.const:.string:rxFifoBytes)
                  0000885a    00000006                          : UARTCC26XX.oem4f (.const:.string:rxFifoThreshold)
                  00008860    00000006                          : UARTCC26XX.oem4f (.const:.string:txFifoBytes)
                  00008866    00000006                          : UARTCC26XX.oem4f (.const:.string:txFifoThreshold)
                  0000886c    00000004     release_pem4f.oem4f (.const:ti_sysbios_family_arm_m3_Hwi_E_exception__C)
                  00008870    00000004     release_pem4f.oem4f (.const:ti_sysbios_heaps_HeapMem_primaryHeapBaseAddr__C)
                  00008874    00000004     release_pem4f.oem4f (.const:ti_sysbios_heaps_HeapMem_primaryHeapEndAddr__C)
                  00008878    00000004     release_pem4f.oem4f (.const:ti_sysbios_knl_Clock_tickPeriod__C)
                  0000887c    00000004     release_pem4f.oem4f (.const:ti_sysbios_knl_Task_Object__heap__C)
                  00008880    00000004     release_pem4f.oem4f (.const:xdc_runtime_Main_Module__diagsEnabled__C)
                  00008884    00000004     release_pem4f.oem4f (.const:xdc_runtime_Main_Module__diagsIncluded__C)
                  00008888    00000004     release_pem4f.oem4f (.const:xdc_runtime_Main_Module__diagsMask__C)
                  0000888c    00000001     release_pem4f.oem4f (.const:xdc_runtime_Text_charTab__A)

MODULE SUMMARY

       Module                                       code    ro data   rw data
       ------                                       ----    -------   -------
    .\
       rfEasyLinkTx.obj                             472     144       28     
       CC1352P1_LAUNCHXL_fxns.obj                   280     28        0      
       uartThread.obj                               248     22        4      
       main_tirtos.obj                              256     0         8      
    +--+--------------------------------------------+-------+---------+---------+
       Total:                                       1256    194       40     
                                                                             
    .\easylink\
       EasyLink.obj                                 2790    16        715    
    +--+--------------------------------------------+-------+---------+---------+
       Total:                                       2790    16        715    
                                                                             
    .\syscfg\
       ti_drivers_config.obj                        524     141       349    
       ti_radio_config.obj                          0       0         354    
       ti_devices_config.obj                        0       88        0      
       ti_easylink_config.obj                       0       1         36     
    +--+--------------------------------------------+-------+---------+---------+
       Total:                                       524     230       739    
                                                                             
    C:\Users\Baker\OneDrive\Uni\Motorsports\Production_Workspace\Telemetry20\tirtos_builds_CC1352P1_LAUNCHXL_release_ccs\Debug\configPkg\package\cfg\
       release_pem4f.oem4f                          802     1805      1830   
    +--+--------------------------------------------+-------+---------+---------+
       Total:                                       802     1805      1830   
                                                                             
    C:/ti/simplelink_cc13x2_26x2_sdk_3_40_00_02/kernel/tirtos/packages/ti/dpl/lib/dpl_cc13x2.aem4f
       PowerCC26X2_tirtos.oem4f                     240     0         8      
       ClockP_tirtos.oem4f                          130     0         4      
       HwiP_tirtos.oem4f                            126     0         0      
       SwiP_tirtos.oem4f                            92      0         0      
       SemaphoreP_tirtos.oem4f                      70      0         0      
    +--+--------------------------------------------+-------+---------+---------+
       Total:                                       658     0         12     
                                                                             
    C:/ti/simplelink_cc13x2_26x2_sdk_3_40_00_02/source/ti/devices/cc13x2_cc26x2/driverlib/bin/ccs/driverlib.lib
       osc.obj                                      436     0         28     
       sys_ctrl.obj                                 408     0         0      
       setup.obj                                    324     0         0      
       chipinfo.obj                                 226     0         0      
       aux_sysif.obj                                52      8         0      
       cpu.obj                                      30      0         0      
       driverlib_release.obj                        0       0         1      
    +--+--------------------------------------------+-------+---------+---------+
       Total:                                       1476    8         29     
                                                                             
    C:/ti/simplelink_cc13x2_26x2_sdk_3_40_00_02/source/ti/drivers/lib/drivers_cc13x2.aem4f
       UARTCC26XX.oem4f                             2742    108       0      
       PowerCC26X2.oem4f                            2218    84        272    
       PINCC26XX.oem4f                              1394    0         276    
       PowerCC26X2_calibrateRCOSC.oem4f             1400    0         0      
       UART.oem4f                                   176     36        1      
       List.oem4f                                   210     0         0      
       RingBuf.oem4f                                152     0         0      
    +--+--------------------------------------------+-------+---------+---------+
       Total:                                       8292    228       549    
                                                                             
    C:/ti/simplelink_cc13x2_26x2_sdk_3_40_00_02/source/ti/drivers/rf/lib/rf_multiMode_cc13x2.aem4f
       RFCC26X2_multiMode.c.cc13x2.ccs.o            9388    40        1157   
       rf_patch_cpe_multi_protocol.c.cc13x2.ccs.o   164     1284      1      
       rfc.c.cc13x2.ccs.o                           302     0         0      
    +--+--------------------------------------------+-------+---------+---------+
       Total:                                       9854    1324      1158   
                                                                             
    C:\Users\Baker\OneDrive\Uni\Motorsports\Production_Workspace\Telemetry20\tirtos_builds_CC1352P1_LAUNCHXL_release_ccs\src\sysbios\rom_sysbios.aem4f
       rom_sysbios.obj                              2597    0         136    
    +--+--------------------------------------------+-------+---------+---------+
       Total:                                       2597    0         136    
                                                                             
    C:\ti\ccs930\ccs\tools\compiler\ti-cgt-arm_18.12.4.LTS\lib\rtsv7M4_T_le_v4SPD16_eabi.lib
       fd_add_t2.asm.obj                            438     0         0      
       fd_cmp_t2.asm.obj                            268     0         0      
       fd_mul_t2.asm.obj                            252     0         0      
       memcpy_t2.asm.obj                            156     0         0      
       ull_div_t2.asm.obj                           150     0         0      
       memset_t2.asm.obj                            122     0         0      
       ll_div_t2.asm.obj                            110     0         0      
       copy_decompress_lzss.c.obj                   104     0         0      
       cpy_tbl.c.obj                                76      0         0      
       fd_toi_t2.asm.obj                            72      0         0      
       fd_tou_t2.asm.obj                            68      0         0      
       u_divt2.asm.obj                              64      0         0      
       fs_tod_t2.asm.obj                            56      0         0      
       rand.c.obj                                   52      0         4      
       i_tofd_t2.asm.obj                            46      0         0      
       _lock.c.obj                                  26      0         8      
       args_main.c.obj                              24      0         0      
       ll_mul_t2.asm.obj                            24      0         0      
       strcmp.c.obj                                 24      0         0      
       strcpy.c.obj                                 20      0         0      
       copy_decompress_none.c.obj                   14      0         0      
       copy_zero_init.c.obj                         12      0         0      
       stkdepth_vars.c.obj                          0       0         4      
       div0.asm.obj                                 2       0         0      
    +--+--------------------------------------------+-------+---------+---------+
       Total:                                       2180    0         16     
                                                                             
    C:\ti\simplelink_cc13x2_26x2_sdk_3_40_00_02\kernel\tirtos\packages\ti\targets\arm\rtsarm\lib\auto_init.aem4f
       auto_init.oem4f                              160     0         0      
    +--+--------------------------------------------+-------+---------+---------+
       Total:                                       160     0         0      
                                                                             
    C:\ti\simplelink_cc13x2_26x2_sdk_3_40_00_02\kernel\tirtos\packages\ti\targets\arm\rtsarm\lib\boot.aem4f
       boot.oem4f                                   88      0         0      
    +--+--------------------------------------------+-------+---------+---------+
       Total:                                       88      0         0      
                                                                             
       Stack:                                       0       0         1024   
       Linker Generated:                            544     780       0      
    +--+--------------------------------------------+-------+---------+---------+
       Grand Total:                                 31221   4585      6248   


LINKER GENERATED COPY TABLES

__TI_cinit_table @ 00008b78 records: 5, size/record: 8, table size: 40
	.data: load addr=00008890, load size=000002b8 bytes, run addr=20004d90, run size=0000070a bytes, compression=lzss
	.bss: load addr=00008b58, load size=00000008 bytes, run addr=20004110, run size=00000c7a bytes, compression=zero_init
	.data:xdcRomConstPtr: load addr=00008b60, load size=00000008 bytes, run addr=20000100, run size=00000004 bytes, compression=lzss
	.data:xdcRomExternFuncPtr: load addr=00008b68, load size=00000008 bytes, run addr=20000104, run size=00000004 bytes, compression=lzss
	.data:xdcRomStatePtr: load addr=00008b70, load size=00000008 bytes, run addr=20000108, run size=00000004 bytes, compression=lzss


LINKER GENERATED HANDLER TABLE

__TI_handler_table @ 00008b48 records: 3, size/record: 4, table size: 12
	index: 0, handler: __TI_decompress_lzss
	index: 1, handler: __TI_decompress_none
	index: 2, handler: __TI_zero_init


FAR CALL TRAMPOLINES

callee name               trampoline name
   callee addr  tramp addr   call addr  call info
--------------  -----------  ---------  ----------------
ti_sysbios_knl_Swi_destruct  $Tramp$TT$L$PI$$ti_sysbios_knl_Swi_destruct
   1002e8bd     00007824     000077f4   dpl_cc13x2.aem4f : SwiP_tirtos.oem4f (.text:SwiP_destruct)
ti_sysbios_family_arm_m3_Hwi_enableInterrupt__E  $Tramp$TT$L$PI$$ti_sysbios_family_arm_m3_Hwi_enableInterrupt__E
   1002d91d     0000782c     000077dc   dpl_cc13x2.aem4f : HwiP_tirtos.oem4f (.text:HwiP_enableInterrupt)
ti_sysbios_family_arm_m3_Hwi_destruct  $Tramp$TT$L$PI$$ti_sysbios_family_arm_m3_Hwi_destruct
   1002e475     00007834     000077d4   dpl_cc13x2.aem4f : HwiP_tirtos.oem4f (.text:HwiP_destruct)
ti_sysbios_BIOS_getCpuFreq__E  $Tramp$TT$L$PI$$ti_sysbios_BIOS_getCpuFreq__E
   1002e9fd     0000783c     000077c0   dpl_cc13x2.aem4f : ClockP_tirtos.oem4f (.text:ClockP_getCpuFreq)
ti_sysbios_knl_Clock_destruct  $Tramp$TT$L$PI$$ti_sysbios_knl_Clock_destruct
   1002e649     00007844     000077bc   dpl_cc13x2.aem4f : ClockP_tirtos.oem4f (.text:ClockP_destruct)
ti_sysbios_knl_Task_self__E  $Tramp$TT$L$PI$$ti_sysbios_knl_Task_self__E
   1002eaf5     0000784c     00007722   rom_sysbios.aem4f : rom_sysbios.obj (.text:pthread_self)
                             00007764   release_pem4f.oem4f (.text:ti_sysbios_rts_ti_ReentSupport_getTlsAddr__I)
ti_sysbios_knl_Clock_logTick__E  $Tramp$TT$L$PI$$ti_sysbios_knl_Clock_logTick__E
   1002dbd7     00007854     000075ae   release_pem4f.oem4f (.text:ti_sysbios_knl_Clock_doTick__I)
ti_sysbios_knl_Swi_post__E  $Tramp$TT$L$PI$$ti_sysbios_knl_Swi_post__E
   1002d891     0000785c     000073f0   rom_sysbios.aem4f : rom_sysbios.obj (.text:ti_sysbios_knl_Swi_or__E)
                             000075b6   release_pem4f.oem4f (.text:ti_sysbios_knl_Clock_doTick__I)
ti_sysbios_BIOS_RtsGateProxy_leave__E  $Tramp$TT$L$PI$$ti_sysbios_BIOS_RtsGateProxy_leave__E
   1002ec7b     00007864     000073d2   release_pem4f.oem4f (.text:ti_sysbios_BIOS_rtsUnlock__I)
ti_sysbios_knl_Swi_construct  $Tramp$TT$L$PI$$ti_sysbios_knl_Swi_construct
   1002d719     0000786c     00007286   rom_sysbios.aem4f : rom_sysbios.obj (.text:ti_sysbios_knl_Swi_construct2__E)
ti_sysbios_BIOS_RtsGateProxy_enter__E  $Tramp$TT$L$PI$$ti_sysbios_BIOS_RtsGateProxy_enter__E
   1002ec77     00007874     000070ee   release_pem4f.oem4f (.text:ti_sysbios_BIOS_rtsLock__I)
ti_sysbios_family_arm_m3_Hwi_disableFxn__E  $Tramp$TT$L$PI$$ti_sysbios_family_arm_m3_Hwi_disableFxn__E
   1002eb55     0000787c     00006fce   dpl_cc13x2.aem4f : HwiP_tirtos.oem4f (.text:HwiP_setFunc)
                             000077d8                    : HwiP_tirtos.oem4f (.text:HwiP_disable)
ti_sysbios_knl_Clock_getTicks__E  $Tramp$TT$L$PI$$ti_sysbios_knl_Clock_getTicks__E
   1002dc11     00007884     00006c98   rom_sysbios.aem4f : rom_sysbios.obj (.text:ti_sysbios_knl_Clock_getTimeout__E)
ti_sysbios_knl_Clock_TimerProxy_getCurrentTick__E  $Tramp$TT$L$PI$$ti_sysbios_knl_Clock_TimerProxy_getCurrentTick__E
   1002eac5     0000788c     00006bea   rom_sysbios.aem4f : rom_sysbios.obj (.text:ti_sysbios_knl_Clock_getTicksUntilInterrupt__E)
ti_sysbios_knl_Task_delete  $Tramp$TT$L$PI$$ti_sysbios_knl_Task_delete
   1002ece7     00007894     00006b94   rom_sysbios.aem4f : rom_sysbios.obj (.text:_pthread_delete$45)
ti_sysbios_knl_Semaphore_destruct  $Tramp$TT$L$PI$$ti_sysbios_knl_Semaphore_destruct
   1002e6fd     0000789c     00006b88   rom_sysbios.aem4f : rom_sysbios.obj (.text:_pthread_delete$45)
                             000077ec   dpl_cc13x2.aem4f : SemaphoreP_tirtos.oem4f (.text:SemaphoreP_destruct)
ti_sysbios_knl_Task_startup__E  $Tramp$TT$L$PI$$ti_sysbios_knl_Task_startup__E
   1002eceb     000078a4     00006a60   release_pem4f.oem4f (.text:ti_sysbios_BIOS_startFunc__I)
ti_sysbios_knl_Swi_startup__E  $Tramp$TT$L$PI$$ti_sysbios_knl_Swi_startup__E
   1002ec6b     000078ac     00006a5c   release_pem4f.oem4f (.text:ti_sysbios_BIOS_startFunc__I)
ti_sysbios_hal_Hwi_startup__E  $Tramp$TT$L$PI$$ti_sysbios_hal_Hwi_startup__E
   1002ec31     000078b4     00006a58   release_pem4f.oem4f (.text:ti_sysbios_BIOS_startFunc__I)
ti_sysbios_family_arm_cc26xx_Timer_startup__E  $Tramp$TT$L$PI$$ti_sysbios_family_arm_cc26xx_Timer_startup__E
   1002dcf1     000078bc     00006a54   release_pem4f.oem4f (.text:ti_sysbios_BIOS_startFunc__I)
xdc_runtime_System_atexit__E  $Tramp$TT$L$PI$$xdc_runtime_System_atexit__E
   1002f559     000078c4     00006a4c   release_pem4f.oem4f (.text:ti_sysbios_BIOS_startFunc__I)
ti_sysbios_BIOS_linkedWithIncorrectBootLibrary__E  $Tramp$TT$L$PI$$ti_sysbios_BIOS_linkedWithIncorrectBootLibrary__E
   1002d01b     000078cc     00006a46   release_pem4f.oem4f (.text:ti_sysbios_BIOS_startFunc__I)
xdc_runtime_Startup_rtsDone__E  $Tramp$TT$L$PI$$xdc_runtime_Startup_rtsDone__E
   1002f8e5     000078d4     00006a3e   release_pem4f.oem4f (.text:ti_sysbios_BIOS_startFunc__I)
ti_sysbios_knl_Swi_disable__E  $Tramp$TT$L$PI$$ti_sysbios_knl_Swi_disable__E
   1002ea25     000078dc     00006a0e   release_pem4f.oem4f (.text:ti_sysbios_BIOS_atExitFunc__I)
                             000071e2   dpl_cc13x2.aem4f : PowerCC26X2_tirtos.oem4f (.text:PowerCC26XX_schedulerDisable)
                             000077f8                    : SwiP_tirtos.oem4f (.text:SwiP_disable)
ti_sysbios_knl_Mailbox_pend__E  $Tramp$TT$L$PI$$ti_sysbios_knl_Mailbox_pend__E
   1002d581     000078e4     00006718   rom_sysbios.aem4f : rom_sysbios.obj (.text:mq_receive)
ti_sysbios_family_arm_m3_Hwi_construct  $Tramp$TT$L$PI$$ti_sysbios_family_arm_m3_Hwi_construct
   1002d421     000078ec     000065f6   rom_sysbios.aem4f : rom_sysbios.obj (.text:ti_sysbios_family_arm_m3_Hwi_construct2__E)
ti_sysbios_knl_Swi_Params__init__S  $Tramp$TT$L$PI$$ti_sysbios_knl_Swi_Params__init__S
   1002ebf1     000078f4     0000657e   dpl_cc13x2.aem4f : SwiP_tirtos.oem4f (.text:SwiP_construct)
ti_sysbios_family_arm_m3_Hwi_Params__init__S  $Tramp$TT$L$PI$$ti_sysbios_family_arm_m3_Hwi_Params__init__S
   1002eb49     000078fc     0000648c   dpl_cc13x2.aem4f : HwiP_tirtos.oem4f (.text:HwiP_construct)
ti_sysbios_knl_Mailbox_post__E  $Tramp$TT$L$PI$$ti_sysbios_knl_Mailbox_post__E
   1002cf49     00007904     00005e3e   rom_sysbios.aem4f : rom_sysbios.obj (.text:mq_send)
ti_sysbios_knl_Clock_construct  $Tramp$TT$L$PI$$ti_sysbios_knl_Clock_construct
   1002dd8d     0000790c     00005db2   dpl_cc13x2.aem4f : ClockP_tirtos.oem4f (.text:ClockP_construct)
ti_sysbios_knl_Clock_Params__init__S  $Tramp$TT$L$PI$$ti_sysbios_knl_Clock_Params__init__S
   1002eb9d     00007914     00005d98   dpl_cc13x2.aem4f : ClockP_tirtos.oem4f (.text:ClockP_construct)
xdc_runtime_System_exit__E  $Tramp$TT$L$PI$$xdc_runtime_System_exit__E
   1002f7b1     0000791c     00005c60   boot.aem4f : boot.oem4f (.text)
                             0000748c   release_pem4f.oem4f (.text:ti_sysbios_BIOS_exitFunc__I)
ti_sysbios_heaps_HeapMem_restore__E  $Tramp$TT$L$PI$$ti_sysbios_heaps_HeapMem_restore__E
   1002eb13     00007924     00005a48   rom_sysbios.aem4f : rom_sysbios.obj (.text:ti_sysbios_heaps_HeapMem_initPrimary__I)
ti_sysbios_heaps_HeapMem_Object__get__S  $Tramp$TT$L$PI$$ti_sysbios_heaps_HeapMem_Object__get__S
   1002e275     0000792c     00005a18   rom_sysbios.aem4f : rom_sysbios.obj (.text:ti_sysbios_heaps_HeapMem_initPrimary__I)
xdc_runtime_Error_raiseX__E  $Tramp$TT$L$PI$$xdc_runtime_Error_raiseX__E
   1002f739     00007934     00004fda   rom_sysbios.aem4f : rom_sysbios.obj (.text:ti_sysbios_family_arm_m3_Hwi_excHandlerMin__I)
ti_sysbios_BIOS_setThreadType__E  $Tramp$TT$L$PI$$ti_sysbios_BIOS_setThreadType__E
   1002ea11     0000793c     00004f9a   rom_sysbios.aem4f : rom_sysbios.obj (.text:ti_sysbios_family_arm_m3_Hwi_excHandlerMin__I)
                             00006a18   release_pem4f.oem4f (.text:ti_sysbios_BIOS_atExitFunc__I)
                             00007486   release_pem4f.oem4f (.text:ti_sysbios_BIOS_exitFunc__I)
ti_sysbios_family_arm_m3_Hwi_excFillContext__I  $Tramp$TT$L$PI$$ti_sysbios_family_arm_m3_Hwi_excFillContext__I
   1002bda9     00007944     00004f94   rom_sysbios.aem4f : rom_sysbios.obj (.text:ti_sysbios_family_arm_m3_Hwi_excHandlerMin__I)
ti_sysbios_knl_Queue_next__E  $Tramp$TT$L$PI$$ti_sysbios_knl_Queue_next__E
   1002ecd7     0000794c     00004a7a   rom_sysbios.aem4f : rom_sysbios.obj (.text:_pthread_removeThreadKeys)
ti_sysbios_knl_Queue_head__E  $Tramp$TT$L$PI$$ti_sysbios_knl_Queue_head__E
   1002ecd3     00007954     00004a66   rom_sysbios.aem4f : rom_sysbios.obj (.text:_pthread_removeThreadKeys)
ti_sysbios_knl_Task_restore__E  $Tramp$TT$L$PI$$ti_sysbios_knl_Task_restore__E
   1002df45     0000795c     0000446e   rom_sysbios.aem4f : rom_sysbios.obj (.text:ti_sysbios_knl_Task_setPri__E)
                             00004a54                     : rom_sysbios.obj (.text:_pthread_removeThreadKeys)
                             00004ab4                     : rom_sysbios.obj (.text:_pthread_removeThreadKeys)
                             00005cba                     : rom_sysbios.obj (.text:pthread_exit)
                             00006edc                     : rom_sysbios.obj (.text:_pthread_cleanupFxn)
                             00007202   dpl_cc13x2.aem4f : PowerCC26X2_tirtos.oem4f (.text:PowerCC26XX_schedulerRestore)
ti_sysbios_knl_Queue_enqueue__E  $Tramp$TT$L$PI$$ti_sysbios_knl_Queue_enqueue__E
   1002ebd9     00007964     00004440   rom_sysbios.aem4f : rom_sysbios.obj (.text:ti_sysbios_knl_Task_setPri__E)
ti_sysbios_knl_Queue_empty__E  $Tramp$TT$L$PI$$ti_sysbios_knl_Queue_empty__E
   1002eb21     0000796c     00004428   rom_sysbios.aem4f : rom_sysbios.obj (.text:ti_sysbios_knl_Task_setPri__E)
                             00004a4c                     : rom_sysbios.obj (.text:_pthread_removeThreadKeys)
ti_sysbios_knl_Queue_remove__E  $Tramp$TT$L$PI$$ti_sysbios_knl_Queue_remove__E
   1002eb2f     00007974     00004422   rom_sysbios.aem4f : rom_sysbios.obj (.text:ti_sysbios_knl_Task_setPri__E)
                             00004a82                     : rom_sysbios.obj (.text:_pthread_removeThreadKeys)
                             00004a88                     : rom_sysbios.obj (.text:_pthread_removeThreadKeys)
ti_sysbios_knl_Task_disable__E  $Tramp$TT$L$PI$$ti_sysbios_knl_Task_disable__E
   1002ea4d     0000797c     000043e8   rom_sysbios.aem4f : rom_sysbios.obj (.text:ti_sysbios_knl_Task_setPri__E)
                             00004a42                     : rom_sysbios.obj (.text:_pthread_removeThreadKeys)
                             00005cae                     : rom_sysbios.obj (.text:pthread_exit)
                             00006a12   release_pem4f.oem4f (.text:ti_sysbios_BIOS_atExitFunc__I)
                             00006ece   rom_sysbios.aem4f : rom_sysbios.obj (.text:_pthread_cleanupFxn)
                             000071da   dpl_cc13x2.aem4f : PowerCC26X2_tirtos.oem4f (.text:PowerCC26XX_schedulerDisable)
xdc_runtime_Assert_raise__I  $Tramp$TT$L$PI$$xdc_runtime_Assert_raise__I
   1002f421     00007984     000042f2   rfEasyLinkTx.obj (.text:RXSetup)
ti_sysbios_knl_Clock_stop__E  $Tramp$TT$L$PI$$ti_sysbios_knl_Clock_stop__E
   1002e2c5     0000798c     0000404e   dpl_cc13x2.aem4f : PowerCC26X2_tirtos.oem4f (.text:PowerCC26XX_standbyPolicy)
                             000077d0                    : ClockP_tirtos.oem4f (.text:ClockP_stop)
ti_sysbios_knl_Clock_start__E  $Tramp$TT$L$PI$$ti_sysbios_knl_Clock_start__E
   1002e9e7     00007994     00004042   dpl_cc13x2.aem4f : PowerCC26X2_tirtos.oem4f (.text:PowerCC26XX_standbyPolicy)
                             000077cc                    : ClockP_tirtos.oem4f (.text:ClockP_start)
ti_sysbios_knl_Clock_setTimeout__E  $Tramp$TT$L$PI$$ti_sysbios_knl_Clock_setTimeout__E
   1002ecc3     0000799c     0000403c   dpl_cc13x2.aem4f : PowerCC26X2_tirtos.oem4f (.text:PowerCC26XX_standbyPolicy)
                             000077c8                    : ClockP_tirtos.oem4f (.text:ClockP_setTimeout)
ti_sysbios_knl_Task_create  $Tramp$TT$L$PI$$ti_sysbios_knl_Task_create
   1002d529     000079a4     000036ee   rom_sysbios.aem4f : rom_sysbios.obj (.text:pthread_create)
ti_sysbios_knl_Semaphore_construct  $Tramp$TT$L$PI$$ti_sysbios_knl_Semaphore_construct
   1002ddc1     000079ac     000036e4   rom_sysbios.aem4f : rom_sysbios.obj (.text:pthread_create)
                             00006b76   dpl_cc13x2.aem4f : SemaphoreP_tirtos.oem4f (.text:SemaphoreP_constructBinary)
ti_sysbios_knl_Semaphore_Params__init__S  $Tramp$TT$L$PI$$ti_sysbios_knl_Semaphore_Params__init__S
   1002ebe5     000079b4     000036d2   rom_sysbios.aem4f : rom_sysbios.obj (.text:pthread_create)
                             00006b66   dpl_cc13x2.aem4f : SemaphoreP_tirtos.oem4f (.text:SemaphoreP_constructBinary)
                             000074a2   EasyLink.obj (.text:ti_sysbios_knl_Semaphore_Params_init)
ti_sysbios_knl_Queue_construct  $Tramp$TT$L$PI$$ti_sysbios_knl_Queue_construct
   1002dee5     000079bc     000036c6   rom_sysbios.aem4f : rom_sysbios.obj (.text:pthread_create)
ti_sysbios_knl_Task_Params__init__S  $Tramp$TT$L$PI$$ti_sysbios_knl_Task_Params__init__S
   1002ec09     000079c4     0000365a   rom_sysbios.aem4f : rom_sysbios.obj (.text:pthread_create)
ti_sysbios_BIOS_start__E  $Tramp$TT$L$PI$$ti_sysbios_BIOS_start__E
   1002eaa5     000079cc     00003132   main_tirtos.obj (.text:main)
xdc_runtime_System_abort__E  $Tramp$TT$L$PI$$xdc_runtime_System_abort__E
   1002f711     000079d4     00002ae6   rfEasyLinkTx.obj (.text:rfEasyLinkTxFnx)
xdc_runtime_System_doPrint__I  $Tramp$TT$L$PI$$xdc_runtime_System_doPrint__I
   1002ecf1     000079dc     000021b2   release_pem4f.oem4f (.text:xdc_runtime_System_printfExtend__I)
ti_sysbios_gates_GateMutex_leave__E  $Tramp$TT$L$PI$$ti_sysbios_gates_GateMutex_leave__E
   1002eb05     000079e4     00001954   rom_sysbios.aem4f : rom_sysbios.obj (.text:mq_open)
                             00001980                     : rom_sysbios.obj (.text:mq_open)
xdc_runtime_Memory_free__E  $Tramp$TT$L$PI$$xdc_runtime_Memory_free__E
   1002f81d     000079ec     00001912   rom_sysbios.aem4f : rom_sysbios.obj (.text:mq_open)
                             0000191c                     : rom_sysbios.obj (.text:mq_open)
                             00001938                     : rom_sysbios.obj (.text:mq_open)
                             00004aa0                     : rom_sysbios.obj (.text:_pthread_removeThreadKeys)
                             00006ba0                     : rom_sysbios.obj (.text:_pthread_delete$45)
ti_sysbios_knl_Mailbox_create  $Tramp$TT$L$PI$$ti_sysbios_knl_Mailbox_create
   1002d311     000079f4     000018fe   rom_sysbios.aem4f : rom_sysbios.obj (.text:mq_open)
xdc_runtime_Memory_alloc__E  $Tramp$TT$L$PI$$xdc_runtime_Memory_alloc__E
   1002f289     000079fc     000018b4   rom_sysbios.aem4f : rom_sysbios.obj (.text:mq_open)
                             000018c8                     : rom_sysbios.obj (.text:mq_open)
                             000018e8                     : rom_sysbios.obj (.text:mq_open)
                             0000366e                     : rom_sysbios.obj (.text:pthread_create)
ti_sysbios_gates_GateMutex_enter__E  $Tramp$TT$L$PI$$ti_sysbios_gates_GateMutex_enter__E
   1002e225     00007a04     00001884   rom_sysbios.aem4f : rom_sysbios.obj (.text:mq_open)
strlen                    $Tramp$TT$L$PI$$strlen
   1002fddb     00007a0c     0000184e   rom_sysbios.aem4f : rom_sysbios.obj (.text:mq_open)
ti_sysbios_BIOS_getThreadType__E  $Tramp$TT$L$PI$$ti_sysbios_BIOS_getThreadType__E
   1002ea95     00007a14     00001810   rom_sysbios.aem4f : rom_sysbios.obj (.text:mq_open)
                             00005e2c                     : rom_sysbios.obj (.text:mq_send)
                             00005e4a                     : rom_sysbios.obj (.text:mq_send)
                             00005e56                     : rom_sysbios.obj (.text:mq_send)
                             000073f6                     : rom_sysbios.obj (.text:ti_sysbios_rts_ti_ReentSupport_getReent__F)
ti_sysbios_knl_Swi_restore__E  $Tramp$TT$L$PI$$ti_sysbios_knl_Swi_restore__E
   1002db61     00007a1c     000017b4   drivers_cc13x2.aem4f : PowerCC26X2.oem4f (.text:Power_sleep)
                             00003914   rf_multiMode_cc13x2.aem4f : RFCC26X2_multiMode.c.cc13x2.ccs.o (.text:RF_pendCmd)
                             00003946                             : RFCC26X2_multiMode.c.cc13x2.ccs.o (.text:RF_pendCmd)
                             00003996                             : RFCC26X2_multiMode.c.cc13x2.ccs.o (.text:RF_pendCmd)
                             000071fa   dpl_cc13x2.aem4f : PowerCC26X2_tirtos.oem4f (.text:PowerCC26XX_schedulerRestore)
ti_sysbios_family_arm_m3_Hwi_restoreFxn__E  $Tramp$TT$L$PI$$ti_sysbios_family_arm_m3_Hwi_restoreFxn__E
   1002ec47     00007a24     000007dc   rf_multiMode_cc13x2.aem4f : RFCC26X2_multiMode.c.cc13x2.ccs.o (.text:RF_fsmActiveState)
                             000008da                             : RFCC26X2_multiMode.c.cc13x2.ccs.o (.text:RF_fsmActiveState)
                             00000974                             : RFCC26X2_multiMode.c.cc13x2.ccs.o (.text:RF_fsmActiveState)
                             00000a64                             : RFCC26X2_multiMode.c.cc13x2.ccs.o (.text:RF_fsmActiveState)
                             00000ae8                             : RFCC26X2_multiMode.c.cc13x2.ccs.o (.text:RF_fsmActiveState)
                             00000b74                             : RFCC26X2_multiMode.c.cc13x2.ccs.o (.text:RF_fsmActiveState)
                             00000b98                             : RFCC26X2_multiMode.c.cc13x2.ccs.o (.text:RF_fsmActiveState)
                             00000ebe                             : RFCC26X2_multiMode.c.cc13x2.ccs.o (.text:RF_open)
                             00001006                             : RFCC26X2_multiMode.c.cc13x2.ccs.o (.text:RF_open)
                             000012be                             : RFCC26X2_multiMode.c.cc13x2.ccs.o (.text:RF_scheduleCmd)
                             00002306   drivers_cc13x2.aem4f : UARTCC26XX.oem4f (.text:UARTCC26XX_open)
                             00002312                        : UARTCC26XX.oem4f (.text:UARTCC26XX_open)
                             0000239c                        : UARTCC26XX.oem4f (.text:UARTCC26XX_open)
                             000028d0   rf_multiMode_cc13x2.aem4f : RFCC26X2_multiMode.c.cc13x2.ccs.o (.text:RF_close)
                             0000295c                             : RFCC26X2_multiMode.c.cc13x2.ccs.o (.text:RF_close)
                             000029c4   drivers_cc13x2.aem4f : UARTCC26XX.oem4f (.text:UARTCC26XX_read)
                             00002a20                        : UARTCC26XX.oem4f (.text:UARTCC26XX_read)
                             00002a48                        : UARTCC26XX.oem4f (.text:UARTCC26XX_read)
                             00002a5a                        : UARTCC26XX.oem4f (.text:UARTCC26XX_read)
                             00002aa4                        : UARTCC26XX.oem4f (.text:UARTCC26XX_read)
                             00002ab4                        : UARTCC26XX.oem4f (.text:UARTCC26XX_read)
                             00002d12   rf_multiMode_cc13x2.aem4f : RFCC26X2_multiMode.c.cc13x2.ccs.o (.text:RF_abortCmd)
                             00002dd0                             : RFCC26X2_multiMode.c.cc13x2.ccs.o (.text:RF_radioOpDoneCb)
                             00003516   drivers_cc13x2.aem4f : PINCC26XX.oem4f (.text:PINCC26XX_setIoCfg)
                             0000374c                        : UARTCC26XX.oem4f (.text:UARTCC26XX_write)
                             0000376e                        : UARTCC26XX.oem4f (.text:UARTCC26XX_write)
                             000037c4                        : UARTCC26XX.oem4f (.text:UARTCC26XX_write)
                             000038ce   rf_multiMode_cc13x2.aem4f : RFCC26X2_multiMode.c.cc13x2.ccs.o (.text:RF_postCmd)
                             00003ad6                             : RFCC26X2_multiMode.c.cc13x2.ccs.o (.text:RF_swiHw)
                             00003cd0   drivers_cc13x2.aem4f : PowerCC26X2.oem4f (.text:Power_releaseDependency)
                             00003e5c                        : PowerCC26X2.oem4f (.text:Power_setDependency)
                             00004664                        : UARTCC26XX.oem4f (.text:writeTxFifoFlush)
                             000047a2                        : UARTCC26XX.oem4f (.text:UARTCC26XX_writeCancel)
                             000047b8                        : UARTCC26XX.oem4f (.text:UARTCC26XX_writeCancel)
                             000047ec                        : UARTCC26XX.oem4f (.text:UARTCC26XX_writeCancel)
                             00004e4c   rf_multiMode_cc13x2.aem4f : RFCC26X2_multiMode.c.cc13x2.ccs.o (.text:RF_issueRadioFreeCb)
                             00004e64                             : RFCC26X2_multiMode.c.cc13x2.ccs.o (.text:RF_issueRadioFreeCb)
                             000050e8                             : RFCC26X2_multiMode.c.cc13x2.ccs.o (.text:RF_ratFreeChannel)
                             0000550c                             : RFCC26X2_multiMode.c.cc13x2.ccs.o (.text:RF_getCurrentTime)
                             00005548                             : RFCC26X2_multiMode.c.cc13x2.ccs.o (.text:RF_getCurrentTime)
                             00005752                             : RFCC26X2_multiMode.c.cc13x2.ccs.o (.text:RF_dispatchNextEvent)
                             000057aa   drivers_cc13x2.aem4f : UARTCC26XX.oem4f (.text:UARTCC26XX_control)
                             00005b3e                        : PowerCC26X2_calibrateRCOSC.oem4f (.text:PowerCC26X2_initiateCalibration)
                             00005ede                        : UARTCC26XX.oem4f (.text:UARTCC26XX_readCancel)
                             00005ef2                        : UARTCC26XX.oem4f (.text:UARTCC26XX_readCancel)
                             00005fbc                        : PowerCC26X2.oem4f (.text:switchXOSCHF)
                             00006062                        : PINCC26XX.oem4f (.text:PIN_setOutputEnable)
                             000060dc                        : PowerCC26X2.oem4f (.text:PowerCC26XX_switchXOSC_HF)
                             000061ac                        : RingBuf.oem4f (.text:RingBuf_put)
                             000061d6                        : RingBuf.oem4f (.text:RingBuf_put)
                             0000629a                        : UART.oem4f (.text:UART_init)
                             0000635a                        : PowerCC26X2.oem4f (.text:PowerCC26XX_isStableXOSC_HF)
                             0000639e                        : RingBuf.oem4f (.text:RingBuf_get)
                             000063a6                        : RingBuf.oem4f (.text:RingBuf_get)
                             0000655e   rf_multiMode_cc13x2.aem4f : RFCC26X2_multiMode.c.cc13x2.ccs.o (.text:RF_cmdStoreEvents)
                             000066e8                             : RFCC26X2_multiMode.c.cc13x2.ccs.o (.text:RF_powerConstraintRelease)
                             000068d8                             : RFCC26X2_multiMode.c.cc13x2.ccs.o (.text:RF_runDirectImmediateCmd)
                             000069a0   drivers_cc13x2.aem4f : PowerCC26X2.oem4f (.text:Power_releaseConstraint)
                             000069d0                        : PowerCC26X2.oem4f (.text:Power_setConstraint)
                             00006af2   rf_multiMode_cc13x2.aem4f : RFCC26X2_multiMode.c.cc13x2.ccs.o (.text:RF_queueEnd)
                             00006c54   drivers_cc13x2.aem4f : List.oem4f (.text:List_insert)
                             00006de8                        : List.oem4f (.text:List_put)
                             00006e0e                        : List.oem4f (.text:List_putHead)
                             00006e34                        : List.oem4f (.text:List_remove)
                             00006fbe                        : List.oem4f (.text:List_get)
                             00006fe0   dpl_cc13x2.aem4f : HwiP_tirtos.oem4f (.text:HwiP_setFunc)
                             0000701c   drivers_cc13x2.aem4f : PowerCC26X2.oem4f (.text:Power_unregisterNotify)
                             000070c2                        : UARTCC26XX.oem4f (.text:threadSafeStdbyDisRelease)
                             000070e2                        : UARTCC26XX.oem4f (.text:threadSafeStdbyDisSet)
                             00007258   rf_multiMode_cc13x2.aem4f : RFCC26X2_multiMode.c.cc13x2.ccs.o (.text:RF_powerConstraintSet)
                             000074ca   drivers_cc13x2.aem4f : List.oem4f (.text:List_clearList)
ti_sysbios_knl_Semaphore_create  $Tramp$TT$L$PI$$ti_sysbios_knl_Semaphore_create
   1002dc49     00007a2c     00000666   EasyLink.obj (.text:EasyLink_init)
ti_sysbios_knl_Semaphore_post__E  $Tramp$TT$L$PI$$ti_sysbios_knl_Semaphore_post__E
   1002cd21     00007a34     000002b8   EasyLink.obj (.text:EasyLink_init)
                             0000033a   EasyLink.obj (.text:EasyLink_init)
                             0000067c   EasyLink.obj (.text:EasyLink_init)
                             00000686   EasyLink.obj (.text:EasyLink_init)
                             00000e10   EasyLink.obj (.text:EasyLink_transmit)
                             00004aaa   rom_sysbios.aem4f : rom_sysbios.obj (.text:_pthread_removeThreadKeys)
                             00005ca8                     : rom_sysbios.obj (.text:pthread_exit)
                             000077f0   dpl_cc13x2.aem4f : SemaphoreP_tirtos.oem4f (.text:SemaphoreP_post)
ti_sysbios_knl_Semaphore_pend__E  $Tramp$TT$L$PI$$ti_sysbios_knl_Semaphore_pend__E
   1002bfb1     00007a3c     00000066   EasyLink.obj (.text:EasyLink_init)
                             00000c2c   EasyLink.obj (.text:EasyLink_transmit)
                             00004a60   rom_sysbios.aem4f : rom_sysbios.obj (.text:_pthread_removeThreadKeys)
                             000075d4   dpl_cc13x2.aem4f : SemaphoreP_tirtos.oem4f (.text:SemaphoreP_pend)

[68 trampolines]
[192 trampoline calls]


GLOBAL SYMBOLS: SORTED ALPHABETICALLY BY Name 

address   name                                                                  
-------   ----                                                                  
00008720  BoardGpioInitTable                                                    
00007185  Board_init                                                            
0000776d  Board_initHook                                                        
00004d69  CC1352P1_LAUNCHXL_sendExtFlashByte                                    
000062f1  CC1352P1_LAUNCHXL_shutDownExtFlash                                    
00005e6d  CC1352P1_LAUNCHXL_wakeUpExtFlash                                      
00007745  ClockP_Params_init                                                    
00005d7d  ClockP_construct                                                      
000077bd  ClockP_destruct                                                       
000077c1  ClockP_getCpuFreq                                                     
1002dc11  ClockP_getSystemTicks                                                 
000077c5  ClockP_getTimeout                                                     
000075f7  ClockP_isActive                                                       
000077c9  ClockP_setTimeout                                                     
000077cd  ClockP_start                                                          
000077d1  ClockP_stop                                                           
20004d70  ClockP_tickPeriod                                                     
000074a9  EasyLink_Params_init                                                  
0000003d  EasyLink_init                                                         
000087c7  EasyLink_numSupportedPhys                                             
200052d0  EasyLink_supportedPhys                                                
00000bc9  EasyLink_transmit                                                     
00004000  HEAPSIZE                                                              
00007607  HwiP_Params_init                                                      
00006471  HwiP_construct                                                        
000077d5  HwiP_destruct                                                         
000077d9  HwiP_disable                                                          
000077dd  HwiP_enableInterrupt                                                  
000077e1  HwiP_post                                                             
1002ec47  HwiP_restore                                                          
00006fc7  HwiP_setFunc                                                          
000074bd  List_clearList                                                        
00006fa5  List_get                                                              
00006c31  List_insert                                                           
00006dc9  List_put                                                              
00006def  List_putHead                                                          
00006e15  List_remove                                                           
20004d74  MQ_UartOUT_RfIN                                                       
20004d78  MQ_Uart_Sent                                                          
00006849  NOROM_AUXSYSIFOpModeChange                                            
000076c1  NOROM_CPUcpsid                                                        
000076cd  NOROM_CPUcpsie                                                        
00007795  NOROM_CPUdelay                                                        
000071a1  NOROM_ChipInfo_GetChipFamily                                          
00005d29  NOROM_ChipInfo_GetChipType                                            
000061e1  NOROM_ChipInfo_GetHwRevision                                          
00007305  NOROM_ChipInfo_GetPackageType                                         
0000492d  NOROM_OSCHF_AttemptToSwitchToXosc                                     
00005565  NOROM_OSCHF_SwitchToRcOscTurnOffXosc                                  
00006cb1  NOROM_OSCHF_TurnOnXosc                                                
00006619  NOROM_OSC_HPOSCRelativeFrequencyOffsetGet                             
0000569d  NOROM_OSC_HPOSCRtcCompensate                                          
0000525b  NOROM_RFCAnaDivTxOverride                                             
000074d1  NOROM_RFCCpeIntGetAndClear                                            
00001653  NOROM_RFCCpePatchReset                                                
00006e3d  NOROM_RFCDoorbellSendTo                                               
00007619  NOROM_RFCHwIntGetAndClear                                             
00006cd9  NOROM_RFCOverrideSearch                                               
000077e5  NOROM_RFCOverrideUpdate                                               
00005fe9  NOROM_RFCSynthPowerDown                                               
000045b9  NOROM_SetupTrimDevice                                                 
0000687d  NOROM_SysCtrlIdle                                                     
000055cd  NOROM_SysCtrlSetRechargeBeforePowerDown                               
00003161  NOROM_SysCtrlStandby                                                  
0000743b  NOROM_ThisLibraryIsFor_CC13x2_CC26x2_HwRev20AndLater_HaltIfViolated   
00007629  PINCC26XX_getPinCount                                                 
0000882c  PINCC26XX_hwAttrs                                                     
0000694d  PINCC26XX_setMux                                                      
00007149  PIN_close                                                             
000074e5  PIN_getOutputValue                                                    
000012d9  PIN_init                                                              
000040a5  PIN_open                                                              
0000594d  PIN_remove                                                            
00006651  PIN_setConfig                                                         
00006031  PIN_setOutputEnable                                                   
000064b1  PIN_setOutputValue                                                    
00006079  PowerCC26X2_RCOSC_clockFunc                                           
00005175  PowerCC26X2_auxISR                                                    
000074f9  PowerCC26X2_calibrate                                                 
0000878c  PowerCC26X2_config                                                    
00005b19  PowerCC26X2_initiateCalibration                                       
20004d90  PowerCC26X2_module                                                    
000072b9  PowerCC26XX_calibrate                                                 
00006331  PowerCC26XX_isStableXOSC_HF                                           
000071d9  PowerCC26XX_schedulerDisable                                          
000071f5  PowerCC26XX_schedulerRestore                                          
00003ff1  PowerCC26XX_standbyPolicy                                             
20004d7c  PowerCC26XX_swiKey                                                    
000060c1  PowerCC26XX_switchXOSC_HF                                             
20004d80  PowerCC26XX_taskKey                                                   
000076d9  Power_getConstraintMask                                               
000076e5  Power_getDependencyCount                                              
00007167  Power_getTransitionLatency                                            
0000731d  Power_idleFunc                                                        
00001e51  Power_init                                                            
00006d01  Power_registerNotify                                                  
0000697d  Power_releaseConstraint                                               
00003c25  Power_releaseDependency                                               
000069ad  Power_setConstraint                                                   
00003db5  Power_setDependency                                                   
00001655  Power_sleep                                                           
00007009  Power_unregisterNotify                                                
000087f8  RFCC26XX_hwAttrs                                                      
00008834  RFCC26XX_schedulerPolicy                                              
0000750d  RF_Params_init                                                        
00007335  RF_ScheduleCmdParams_init                                             
00002845  RF_close                                                              
20005350  RF_cmdFs                                                              
200051e0  RF_cmdPropRadioDivSetup                                               
20005210  RF_cmdPropRxAdv                                                       
20005368  RF_cmdPropTx                                                          
000077e9  RF_defaultConflictPolicy                                              
00005cd1  RF_defaultSubmitPolicy                                                
000054f9  RF_getCurrentTime                                                     
000049b5  RF_getTxPower                                                         
00000e79  RF_open                                                               
000038e1  RF_pendCmd                                                            
00003809  RF_postCmd                                                            
000076f1  RF_powerConstraintGet                                                 
000066c1  RF_powerConstraintRelease                                             
00007249  RF_powerConstraintSet                                                 
200053f0  RF_prop                                                               
00006d51  RF_runCmd                                                             
000010d5  RF_scheduleCmd                                                        
00007f48  ROM_constStruct                                                       
00008640  ROM_externFuncPtrs                                                    
20004ea0  ROM_stateStruct                                                       
000042a1  RXSetup                                                               
00005c21  ResetISR                                                              
000075c1  RingBuf_construct                                                     
00006371  RingBuf_get                                                           
00006199  RingBuf_put                                                           
UNDEFED   SHT$$INIT_ARRAY$$Base                                                 
UNDEFED   SHT$$INIT_ARRAY$$Limit                                                
00006b55  SemaphoreP_constructBinary                                            
000077ed  SemaphoreP_destruct                                                   
000075d3  SemaphoreP_pend                                                       
000077f1  SemaphoreP_post                                                       
00007659  SwiP_Params_init                                                      
00006565  SwiP_construct                                                        
000077f5  SwiP_destruct                                                         
000077f9  SwiP_disable                                                          
000077fd  SwiP_getTrigger                                                       
00007801  SwiP_or                                                               
1002db61  SwiP_restore                                                          
00004ef5  UARTCC26XX_close                                                      
00005765  UARTCC26XX_control                                                    
00008688  UARTCC26XX_fxnTable                                                   
000025a9  UARTCC26XX_hwiIntFxn                                                  
00007775  UARTCC26XX_init                                                       
000022f1  UARTCC26XX_open                                                       
00002985  UARTCC26XX_read                                                       
00005eb9  UARTCC26XX_readCancel                                                 
000077a1  UARTCC26XX_readPolling                                                
000057c9  UARTCC26XX_swiIntFxn                                                  
00003729  UARTCC26XX_write                                                      
0000477f  UARTCC26XX_writeCancel                                                
000077a7  UARTCC26XX_writePolling                                               
00007365  UART_Params_init                                                      
00008804  UART_config                                                           
000087c6  UART_count                                                            
000086d8  UART_defaultParams                                                    
00006269  UART_init                                                             
000063b1  UART_open                                                             
0000774f  UART_read                                                             
00007759  UART_write                                                            
00000000  __ASM__                                                               
000000ad  __ISA__                                                               
000000c0  __PLAT__                                                              
20014000  __STACK_END                                                           
00000400  __STACK_SIZE                                                          
000000e7  __TARG__                                                              
00008b78  __TI_CINIT_Base                                                       
00008ba0  __TI_CINIT_Limit                                                      
00008b48  __TI_Handler_Table_Base                                               
00008b54  __TI_Handler_Table_Limit                                              
00004341  __TI_auto_init                                                        
00005635  __TI_decompress_lzss                                                  
00007697  __TI_decompress_none                                                  
ffffffff  __TI_pprof_out_hndl                                                   
ffffffff  __TI_prof_data_size                                                   
ffffffff  __TI_prof_data_start                                                  
00000000  __TI_static_base__                                                    
00007715  __TI_zero_init                                                        
0000010d  __TRDR__                                                              
00004c5d  __aeabi_cdcmpeq                                                       
00004c5d  __aeabi_cdcmple                                                       
00004ce3  __aeabi_cdrcmple                                                      
00006109  __aeabi_d2iz                                                          
000062ad  __aeabi_d2uiz                                                         
000014a7  __aeabi_dadd                                                          
00003359  __aeabi_dmul                                                          
0000149d  __aeabi_dsub                                                          
00007805  __aeabi_errno_addr                                                    
000067a1  __aeabi_f2d                                                           
00006afb  __aeabi_i2d                                                           
00005173  __aeabi_idiv0                                                         
00005173  __aeabi_ldiv0                                                         
00005419  __aeabi_ldivmod                                                       
00007395  __aeabi_lmul                                                          
000050f9  __aeabi_memclr                                                        
000050f9  __aeabi_memclr4                                                       
000050f9  __aeabi_memclr8                                                       
0000451d  __aeabi_memcpy                                                        
0000451d  __aeabi_memcpy4                                                       
0000451d  __aeabi_memcpy8                                                       
000050fb  __aeabi_memset                                                        
000050fb  __aeabi_memset4                                                       
000050fb  __aeabi_memset8                                                       
000063f1  __aeabi_uidiv                                                         
000063f1  __aeabi_uidivmod                                                      
000046e9  __aeabi_uldivmod                                                      
ffffffff  __binit__                                                             
ffffffff  __c_args__                                                            
00057fa8  __ccfg                                                                
20004110  __primary_heap_end__                                                  
20000110  __primary_heap_start__                                                
20013c00  __stack                                                               
0000737d  _args_main                                                            
00005c21  _c_int00                                                              
2000540c  _lock                                                                 
00002f5f  _nop                                                                  
00006ecd  _pthread_cleanupFxn                                                   
00007467  _pthread_cleanup_pop                                                  
00004a3d  _pthread_removeThreadKeys                                             
000076fd  _register_lock                                                        
00007709  _register_unlock                                                      
20005410  _unlock                                                               
ffffffff  binit                                                                 
00005f05  copy_in                                                               
00005abd  createTxAdvFromTx                                                     
20004d89  driverlib_release_0_55938                                             
0000850c  heap                                                                  
000065a1  initRfFrontend                                                        
00003061  main                                                                  
20005488  main_func_sp                                                          
0000451d  memcpy                                                                
00005101  memset                                                                
000017fd  mq_open                                                               
000066f9  mq_receive                                                            
00005e1d  mq_send                                                               
20005380  pOverrides                                                            
200053c8  pOverridesTx20                                                        
200053dc  pOverridesTxStd                                                       
20004abc  pinHandleTable                                                        
20005418  pinLowerBound                                                         
20005400  pinTable                                                              
20005414  pinUpperBound                                                         
00006f15  pthread_attr_init                                                     
000076a5  pthread_attr_setdetachstate                                           
0000755d  pthread_attr_setschedparam                                            
000077ad  pthread_attr_setstacksize                                             
0000363d  pthread_create                                                        
00005c79  pthread_exit                                                          
00007721  pthread_self                                                          
00006bad  pthread_setcancelstate                                                
000068e5  rand                                                                  
000085a4  resourceDB                                                            
00002ac1  rfEasyLinkTxFnx                                                       
000069dd  rf_patch_cpe_multi_protocol                                           
000073ad  strcmp                                                                
00007571  strcpy                                                                
1002fddb  strlen                                                                
20004ee0  ti_sysbios_BIOS_Module__state__V                                      
000084f0  ti_sysbios_BIOS_Module__state__V_offset                               
1002e4e1  ti_sysbios_BIOS_RtsGateProxy_Handle__label__S                         
1002eb79  ti_sysbios_BIOS_RtsGateProxy_Params__init__S                          
1002ec77  ti_sysbios_BIOS_RtsGateProxy_enter__E                                 
1002ec7b  ti_sysbios_BIOS_RtsGateProxy_leave__E                                 
1002ec9b  ti_sysbios_BIOS_RtsGateProxy_query__E                                 
1002ec9b  ti_sysbios_BIOS_RtsGateProxy_query__E                                 
00006a0d  ti_sysbios_BIOS_atExitFunc__I                                         
0000747d  ti_sysbios_BIOS_exitFunc__I                                           
1002ea85  ti_sysbios_BIOS_exit__E                                               
1002e9fd  ti_sysbios_BIOS_getCpuFreq__E                                         
1002ea95  ti_sysbios_BIOS_getThreadType__E                                      
1002d01b  ti_sysbios_BIOS_linkedWithIncorrectBootLibrary__E                     
000052cb  ti_sysbios_BIOS_nullFunc__I                                           
00006f39  ti_sysbios_BIOS_registerRTSLock__I                                    
00006f5d  ti_sysbios_BIOS_removeRTSLock__I                                      
000070e9  ti_sysbios_BIOS_rtsLock__I                                            
000073c5  ti_sysbios_BIOS_rtsUnlock__I                                          
1002ea11  ti_sysbios_BIOS_setThreadType__E                                      
00006a3d  ti_sysbios_BIOS_startFunc__I                                          
1002eaa5  ti_sysbios_BIOS_start__E                                              
000045b9  ti_sysbios_family_arm_cc26xx_Boot_trimDevice                          
00008032  ti_sysbios_family_arm_cc26xx_Timer_Module__id__C                      
0000834c  ti_sysbios_family_arm_cc26xx_Timer_Module__id__C_offset               
1002e15d  ti_sysbios_family_arm_cc26xx_Timer_Module__startupDone__S             
20004fa4  ti_sysbios_family_arm_cc26xx_Timer_Module__state__V                   
00008508  ti_sysbios_family_arm_cc26xx_Timer_Module__state__V_offset            
1002dfa5  ti_sysbios_family_arm_cc26xx_Timer_Module_startup__E                  
20005158  ti_sysbios_family_arm_cc26xx_Timer_Object__table__V                   
00007109  ti_sysbios_family_arm_cc26xx_Timer_dynamicStub__E                     
00008068  ti_sysbios_family_arm_cc26xx_Timer_funcHookCH1__C                     
00008368  ti_sysbios_family_arm_cc26xx_Timer_funcHookCH1__C_offset              
000080c8  ti_sysbios_family_arm_cc26xx_Timer_funcHookCH2__C                     
000083ac  ti_sysbios_family_arm_cc26xx_Timer_funcHookCH2__C_offset              
00007599  ti_sysbios_family_arm_cc26xx_Timer_getCount64__E                      
00006a6d  ti_sysbios_family_arm_cc26xx_Timer_getCurrentTick__E                  
1002ec7f  ti_sysbios_family_arm_cc26xx_Timer_getExpiredTicks__E                 
00006f81  ti_sysbios_family_arm_cc26xx_Timer_getMaxTicks__E                     
1002ec83  ti_sysbios_family_arm_cc26xx_Timer_getPeriod__E                       
00006a9d  ti_sysbios_family_arm_cc26xx_Timer_initDevice__I                      
1002c709  ti_sysbios_family_arm_cc26xx_Timer_periodicStub__E                    
1002dfd1  ti_sysbios_family_arm_cc26xx_Timer_postInit__I                        
00006811  ti_sysbios_family_arm_cc26xx_Timer_setNextTick__E                     
1002ec87  ti_sysbios_family_arm_cc26xx_Timer_setPeriod__E                       
00006431  ti_sysbios_family_arm_cc26xx_Timer_setThreshold__I                    
00004ffd  ti_sysbios_family_arm_cc26xx_Timer_start__E                           
000080a0  ti_sysbios_family_arm_cc26xx_Timer_startupNeeded__C                   
000083a0  ti_sysbios_family_arm_cc26xx_Timer_startupNeeded__C_offset            
1002dcf1  ti_sysbios_family_arm_cc26xx_Timer_startup__E                         
20004ecc  ti_sysbios_family_arm_cc26xx_TimestampProvider_Module__state__V       
000084e4  ti_sysbios_family_arm_cc26xx_TimestampProvider_Module__state__V_offset
1002e42d  ti_sysbios_family_arm_cc26xx_TimestampProvider_Module_startup__E      
000076b3  ti_sysbios_family_arm_cc26xx_TimestampProvider_get32__E               
1002dffd  ti_sysbios_family_arm_cc26xx_TimestampProvider_get64__E               
1002eb3d  ti_sysbios_family_arm_cc26xx_TimestampProvider_getFreq__E             
00008240  ti_sysbios_family_arm_cc26xx_TimestampProvider_useClockTimer__C       
00008458  ti_sysbios_family_arm_cc26xx_TimestampProvider_useClockTimer__C_offset
000080cc  ti_sysbios_family_arm_m3_Hwi_E_NMI__C                                 
000083b0  ti_sysbios_family_arm_m3_Hwi_E_NMI__C_offset                          
000081d0  ti_sysbios_family_arm_m3_Hwi_E_alreadyDefined__C                      
00008420  ti_sysbios_family_arm_m3_Hwi_E_alreadyDefined__C_offset               
00008130  ti_sysbios_family_arm_m3_Hwi_E_busFault__C                            
000083d4  ti_sysbios_family_arm_m3_Hwi_E_busFault__C_offset                     
00008258  ti_sysbios_family_arm_m3_Hwi_E_debugMon__C                            
00008470  ti_sysbios_family_arm_m3_Hwi_E_debugMon__C_offset                     
0000886c  ti_sysbios_family_arm_m3_Hwi_E_exception__C                           
0000824c  ti_sysbios_family_arm_m3_Hwi_E_hardFault__C                           
00008464  ti_sysbios_family_arm_m3_Hwi_E_hardFault__C_offset                    
00008274  ti_sysbios_family_arm_m3_Hwi_E_hwiLimitExceeded__C                    
0000848c  ti_sysbios_family_arm_m3_Hwi_E_hwiLimitExceeded__C_offset             
000082c8  ti_sysbios_family_arm_m3_Hwi_E_memFault__C                            
000084c4  ti_sysbios_family_arm_m3_Hwi_E_memFault__C_offset                     
000080a4  ti_sysbios_family_arm_m3_Hwi_E_noIsr__C                               
000083a4  ti_sysbios_family_arm_m3_Hwi_E_noIsr__C_offset                        
00008070  ti_sysbios_family_arm_m3_Hwi_E_reserved__C                            
00008370  ti_sysbios_family_arm_m3_Hwi_E_reserved__C_offset                     
0000825c  ti_sysbios_family_arm_m3_Hwi_E_svCall__C                              
00008474  ti_sysbios_family_arm_m3_Hwi_E_svCall__C_offset                       
000082b8  ti_sysbios_family_arm_m3_Hwi_E_usageFault__C                          
000084b4  ti_sysbios_family_arm_m3_Hwi_E_usageFault__C_offset                   
1002e451  ti_sysbios_family_arm_m3_Hwi_Handle__label__S                         
1002ce71  ti_sysbios_family_arm_m3_Hwi_Instance_finalize__E                     
1002c79d  ti_sysbios_family_arm_m3_Hwi_Instance_init__E                         
200050b6  ti_sysbios_family_arm_m3_Hwi_Module_State_0_excActive__A              
2000548c  ti_sysbios_family_arm_m3_Hwi_Module_State_0_excContext__A             
20005490  ti_sysbios_family_arm_m3_Hwi_Module_State_0_excStack__A               
00008030  ti_sysbios_family_arm_m3_Hwi_Module__id__C                            
00008348  ti_sysbios_family_arm_m3_Hwi_Module__id__C_offset                     
2000541c  ti_sysbios_family_arm_m3_Hwi_Module__root__V                          
1002e185  ti_sysbios_family_arm_m3_Hwi_Module__startupDone__S                   
20004f70  ti_sysbios_family_arm_m3_Hwi_Module__state__V                         
00008504  ti_sysbios_family_arm_m3_Hwi_Module__state__V_offset                  
1002d3c9  ti_sysbios_family_arm_m3_Hwi_Module_startup__E                        
00008088  ti_sysbios_family_arm_m3_Hwi_NUM_INTERRUPTS__C                        
00008384  ti_sysbios_family_arm_m3_Hwi_NUM_INTERRUPTS__C_offset                 
00008284  ti_sysbios_family_arm_m3_Hwi_Object__DESC__C                          
0000849c  ti_sysbios_family_arm_m3_Hwi_Object__DESC__C_offset                   
1002fc10  ti_sysbios_family_arm_m3_Hwi_Object__PARAMS__C                        
000082a8  ti_sysbios_family_arm_m3_Hwi_Object__count__C                         
000084a4  ti_sysbios_family_arm_m3_Hwi_Object__count__C_offset                  
1002e1ad  ti_sysbios_family_arm_m3_Hwi_Object__delete__S                        
1002e1d5  ti_sysbios_family_arm_m3_Hwi_Object__get__S                           
00008038  ti_sysbios_family_arm_m3_Hwi_Object__table__C                         
00008354  ti_sysbios_family_arm_m3_Hwi_Object__table__C_offset                  
20005398  ti_sysbios_family_arm_m3_Hwi_Object__table__V                         
1002eb49  ti_sysbios_family_arm_m3_Hwi_Params__init__S                          
000082bc  ti_sysbios_family_arm_m3_Hwi_ccr__C                                   
000084b8  ti_sysbios_family_arm_m3_Hwi_ccr__C_offset                            
1002d421  ti_sysbios_family_arm_m3_Hwi_construct                                
000065dd  ti_sysbios_family_arm_m3_Hwi_construct2__E                            
1002d1a1  ti_sysbios_family_arm_m3_Hwi_create                                   
1002ec8b  ti_sysbios_family_arm_m3_Hwi_delete                                   
1002e475  ti_sysbios_family_arm_m3_Hwi_destruct                                 
1002eb55  ti_sysbios_family_arm_m3_Hwi_disableFxn__E                            
1002d8d9  ti_sysbios_family_arm_m3_Hwi_disableInterrupt__E                      
1002cedd  ti_sysbios_family_arm_m3_Hwi_dispatchC__I                             
200048ac  ti_sysbios_family_arm_m3_Hwi_dispatchTable                            
1002f931  ti_sysbios_family_arm_m3_Hwi_dispatch__I                              
1002ec29  ti_sysbios_family_arm_m3_Hwi_doSwiRestore__I                          
1002ec41  ti_sysbios_family_arm_m3_Hwi_doTaskRestore__I                         
1002eb61  ti_sysbios_family_arm_m3_Hwi_enableFxn__E                             
1002d91d  ti_sysbios_family_arm_m3_Hwi_enableInterrupt__E                       
1002b82d  ti_sysbios_family_arm_m3_Hwi_excBusFault__I                           
1002c31d  ti_sysbios_family_arm_m3_Hwi_excDebugMon__I                           
1002b405  ti_sysbios_family_arm_m3_Hwi_excDumpRegs__I                           
1002bda9  ti_sysbios_family_arm_m3_Hwi_excFillContext__I                        
1002fb39  ti_sysbios_family_arm_m3_Hwi_excHandlerAsm__I                         
00008104  ti_sysbios_family_arm_m3_Hwi_excHandlerFunc__C                        
000083cc  ti_sysbios_family_arm_m3_Hwi_excHandlerFunc__C_offset                 
1002beb5  ti_sysbios_family_arm_m3_Hwi_excHandlerMax__I                         
00004f79  ti_sysbios_family_arm_m3_Hwi_excHandlerMin__I                         
1002ddf5  ti_sysbios_family_arm_m3_Hwi_excHandler__I                            
1002c185  ti_sysbios_family_arm_m3_Hwi_excHardFault__I                          
00008844  ti_sysbios_family_arm_m3_Hwi_excHookFuncs__A                          
00007f78  ti_sysbios_family_arm_m3_Hwi_excHookFuncs__C                          
00008310  ti_sysbios_family_arm_m3_Hwi_excHookFuncs__C_offset                   
1002bc61  ti_sysbios_family_arm_m3_Hwi_excMemFault__I                           
1002da71  ti_sysbios_family_arm_m3_Hwi_excNmi__I                                
1002d961  ti_sysbios_family_arm_m3_Hwi_excNoIsr__I                              
1002d62d  ti_sysbios_family_arm_m3_Hwi_excReserved__I                           
1002d9a5  ti_sysbios_family_arm_m3_Hwi_excSvCall__I                             
1002b9a1  ti_sysbios_family_arm_m3_Hwi_excUsageFault__I                         
1002daad  ti_sysbios_family_arm_m3_Hwi_getHandle__E                             
1002d9e9  ti_sysbios_family_arm_m3_Hwi_getStackInfo__E                          
1002c831  ti_sysbios_family_arm_m3_Hwi_initNVIC__E                              
1002fab9  ti_sysbios_family_arm_m3_Hwi_initStacks__E                            
1002fa11  ti_sysbios_family_arm_m3_Hwi_interruptsAreDisabledButShouldNotBe      
00008164  ti_sysbios_family_arm_m3_Hwi_nullIsrFunc__C                           
000083ec  ti_sysbios_family_arm_m3_Hwi_nullIsrFunc__C_offset                    
00008238  ti_sysbios_family_arm_m3_Hwi_numSparseInterrupts__C                   
00008450  ti_sysbios_family_arm_m3_Hwi_numSparseInterrupts__C_offset            
e000e000  ti_sysbios_family_arm_m3_Hwi_nvic                                     
1002fb11  ti_sysbios_family_arm_m3_Hwi_pendSV__I                                
1002e8fd  ti_sysbios_family_arm_m3_Hwi_plug__E                                  
1002c3d9  ti_sysbios_family_arm_m3_Hwi_postInit__I                              
00007669  ti_sysbios_family_arm_m3_Hwi_post__E                                  
000081c8  ti_sysbios_family_arm_m3_Hwi_priGroup__C                              
00008418  ti_sysbios_family_arm_m3_Hwi_priGroup__C_offset                       
20000000  ti_sysbios_family_arm_m3_Hwi_ramVectors                               
00000000  ti_sysbios_family_arm_m3_Hwi_resetVectors                             
1002ec47  ti_sysbios_family_arm_m3_Hwi_restoreFxn__E                            
1002fb35  ti_sysbios_family_arm_m3_Hwi_return                                   
000077b3  ti_sysbios_family_arm_m3_Hwi_setFunc__E                               
1002e919  ti_sysbios_family_arm_m3_Hwi_setPriority__E                           
1002ec31  ti_sysbios_family_arm_m3_Hwi_startup__E                               
1002e935  ti_sysbios_family_arm_m3_Hwi_switchFromBootStack__E                   
1002ec8f  ti_sysbios_family_arm_m3_TaskSupport_Module__startupDone__S           
1002fa2d  ti_sysbios_family_arm_m3_TaskSupport_buildTaskStack                   
1002eab5  ti_sysbios_family_arm_m3_TaskSupport_getStackAlignment__E             
1002fb8f  ti_sysbios_family_arm_m3_TaskSupport_glue                             
00008084  ti_sysbios_family_arm_m3_TaskSupport_stackAlignment__C                
00008380  ti_sysbios_family_arm_m3_TaskSupport_stackAlignment__C_offset         
1002dae9  ti_sysbios_family_arm_m3_TaskSupport_start__E                         
1002fb77  ti_sysbios_family_arm_m3_TaskSupport_swap__E                          
1002fb59  ti_sysbios_family_xxx_Hwi_switchAndRunFunc                            
1002e499  ti_sysbios_gates_GateHwi_Handle__label__S                             
1002d5d7  ti_sysbios_gates_GateHwi_Instance_init__E                             
00008184  ti_sysbios_gates_GateHwi_Module__FXNS__C                              
00008410  ti_sysbios_gates_GateHwi_Module__FXNS__C_offset                       
000080f4  ti_sysbios_gates_GateHwi_Module__id__C                                
000083bc  ti_sysbios_gates_GateHwi_Module__id__C_offset                         
20005424  ti_sysbios_gates_GateHwi_Module__root__V                              
00008210  ti_sysbios_gates_GateHwi_Object__DESC__C                              
00008444  ti_sysbios_gates_GateHwi_Object__DESC__C_offset                       
1002fd00  ti_sysbios_gates_GateHwi_Object__PARAMS__C                            
1002e029  ti_sysbios_gates_GateHwi_Object__create__S                            
1002e4bd  ti_sysbios_gates_GateHwi_Object__delete__S                            
1002eb6d  ti_sysbios_gates_GateHwi_enter__E                                     
1002ec4d  ti_sysbios_gates_GateHwi_leave__E                                     
1002ec93  ti_sysbios_gates_GateHwi_query__E                                     
1002e4e1  ti_sysbios_gates_GateMutex_Handle__label__S                           
00007fa0  ti_sysbios_gates_GateMutex_Instance_State_sem__O                      
0000831c  ti_sysbios_gates_GateMutex_Instance_State_sem__O_offset               
1002ec53  ti_sysbios_gates_GateMutex_Instance_finalize__E                       
1002e9bb  ti_sysbios_gates_GateMutex_Instance_init__E                           
00008008  ti_sysbios_gates_GateMutex_Module__FXNS__C                            
00008340  ti_sysbios_gates_GateMutex_Module__FXNS__C_offset                     
0000816a  ti_sysbios_gates_GateMutex_Module__id__C                              
000083f4  ti_sysbios_gates_GateMutex_Module__id__C_offset                       
2000542c  ti_sysbios_gates_GateMutex_Module__root__V                            
00007f7c  ti_sysbios_gates_GateMutex_Object__DESC__C                            
00008314  ti_sysbios_gates_GateMutex_Object__DESC__C_offset                     
1002fd18  ti_sysbios_gates_GateMutex_Object__PARAMS__C                          
1002de25  ti_sysbios_gates_GateMutex_Object__create__S                          
1002e1fd  ti_sysbios_gates_GateMutex_Object__delete__S                          
200050b8  ti_sysbios_gates_GateMutex_Object__table__V                           
1002eb79  ti_sysbios_gates_GateMutex_Params__init__S                            
1002e055  ti_sysbios_gates_GateMutex_construct                                  
1002de55  ti_sysbios_gates_GateMutex_create                                     
1002ec97  ti_sysbios_gates_GateMutex_delete                                     
1002e505  ti_sysbios_gates_GateMutex_destruct                                   
1002e225  ti_sysbios_gates_GateMutex_enter__E                                   
1002eb05  ti_sysbios_gates_GateMutex_leave__E                                   
1002ec9b  ti_sysbios_gates_GateMutex_query__E                                   
1002e451  ti_sysbios_hal_Hwi_HwiProxy_Handle__label__S                          
1002e185  ti_sysbios_hal_Hwi_HwiProxy_Module__startupDone__S                    
1002eb49  ti_sysbios_hal_Hwi_HwiProxy_Params__init__S                           
1002ec9f  ti_sysbios_hal_Hwi_HwiProxy_create                                    
1002eca3  ti_sysbios_hal_Hwi_HwiProxy_delete                                    
1002d8d9  ti_sysbios_hal_Hwi_HwiProxy_disableInterrupt__E                       
1002d8d9  ti_sysbios_hal_Hwi_HwiProxy_disableInterrupt__E                       
1002d91d  ti_sysbios_hal_Hwi_HwiProxy_enableInterrupt__E                        
1002d91d  ti_sysbios_hal_Hwi_HwiProxy_enableInterrupt__E                        
1002d9e9  ti_sysbios_hal_Hwi_HwiProxy_getStackInfo__E                           
1002d9e9  ti_sysbios_hal_Hwi_HwiProxy_getStackInfo__E                           
00007669  ti_sysbios_hal_Hwi_HwiProxy_post__E                                   
1002ec31  ti_sysbios_hal_Hwi_HwiProxy_startup__E                                
1002ec31  ti_sysbios_hal_Hwi_HwiProxy_startup__E                                
1002e935  ti_sysbios_hal_Hwi_HwiProxy_switchFromBootStack__E                    
1002e935  ti_sysbios_hal_Hwi_HwiProxy_switchFromBootStack__E                    
1002ec15  ti_sysbios_hal_Hwi_Instance_finalize__E                               
1002e8dd  ti_sysbios_hal_Hwi_Instance_init__E                                   
20005434  ti_sysbios_hal_Hwi_Module__root__V                                    
1002ea61  ti_sysbios_hal_Hwi_Module_startup__E                                  
000081a8  ti_sysbios_hal_Hwi_Object__DESC__C                                    
00008414  ti_sysbios_hal_Hwi_Object__DESC__C_offset                             
1002fc40  ti_sysbios_hal_Hwi_Object__PARAMS__C                                  
1002e24d  ti_sysbios_hal_Hwi_Object__delete__S                                  
1002d1fd  ti_sysbios_hal_Hwi_create                                             
1002eca7  ti_sysbios_hal_Hwi_delete                                             
1002d8d9  ti_sysbios_hal_Hwi_disableInterrupt__E                                
1002d8d9  ti_sysbios_hal_Hwi_disableInterrupt__E                                
1002d91d  ti_sysbios_hal_Hwi_enableInterrupt__E                                 
1002d91d  ti_sysbios_hal_Hwi_enableInterrupt__E                                 
1002d9e9  ti_sysbios_hal_Hwi_getStackInfo__E                                    
1002d9e9  ti_sysbios_hal_Hwi_getStackInfo__E                                    
1002df75  ti_sysbios_hal_Hwi_initStack                                          
00007669  ti_sysbios_hal_Hwi_post__E                                            
1002ec31  ti_sysbios_hal_Hwi_startup__E                                         
1002ec31  ti_sysbios_hal_Hwi_startup__E                                         
1002e935  ti_sysbios_hal_Hwi_switchFromBootStack__E                             
1002e935  ti_sysbios_hal_Hwi_switchFromBootStack__E                             
000082c4  ti_sysbios_heaps_HeapMem_E_memory__C                                  
000084c0  ti_sysbios_heaps_HeapMem_E_memory__C_offset                           
1002e529  ti_sysbios_heaps_HeapMem_Handle__label__S                             
1002d849  ti_sysbios_heaps_HeapMem_Instance_init__E                             
1002e4e1  ti_sysbios_heaps_HeapMem_Module_GateProxy_Handle__label__S            
1002eb79  ti_sysbios_heaps_HeapMem_Module_GateProxy_Params__init__S             
1002ecab  ti_sysbios_heaps_HeapMem_Module_GateProxy_enter__E                    
1002ecaf  ti_sysbios_heaps_HeapMem_Module_GateProxy_leave__E                    
1002ec9b  ti_sysbios_heaps_HeapMem_Module_GateProxy_query__E                    
1002ec9b  ti_sysbios_heaps_HeapMem_Module_GateProxy_query__E                    
00008108  ti_sysbios_heaps_HeapMem_Module__FXNS__C                              
000083d0  ti_sysbios_heaps_HeapMem_Module__FXNS__C_offset                       
0000809c  ti_sysbios_heaps_HeapMem_Module__gateObj__C                           
0000839c  ti_sysbios_heaps_HeapMem_Module__gateObj__C_offset                    
00008100  ti_sysbios_heaps_HeapMem_Module__id__C                                
000083c8  ti_sysbios_heaps_HeapMem_Module__id__C_offset                         
2000543c  ti_sysbios_heaps_HeapMem_Module__root__V                              
000082d0  ti_sysbios_heaps_HeapMem_Object__DESC__C                              
000084cc  ti_sysbios_heaps_HeapMem_Object__DESC__C_offset                       
1002fc94  ti_sysbios_heaps_HeapMem_Object__PARAMS__C                            
00008234  ti_sysbios_heaps_HeapMem_Object__count__C                             
0000844c  ti_sysbios_heaps_HeapMem_Object__count__C_offset                      
1002de85  ti_sysbios_heaps_HeapMem_Object__create__S                            
1002e54d  ti_sysbios_heaps_HeapMem_Object__delete__S                            
1002e275  ti_sysbios_heaps_HeapMem_Object__get__S                               
00008064  ti_sysbios_heaps_HeapMem_Object__table__C                             
00008364  ti_sysbios_heaps_HeapMem_Object__table__C_offset                      
200053b0  ti_sysbios_heaps_HeapMem_Object__table__V                             
1002cb51  ti_sysbios_heaps_HeapMem_allocUnprotected__E                          
1002d259  ti_sysbios_heaps_HeapMem_alloc__E                                     
1002d479  ti_sysbios_heaps_HeapMem_freeUnprotected__E                           
1002dbd9  ti_sysbios_heaps_HeapMem_free__E                                      
1002d6cd  ti_sysbios_heaps_HeapMem_getStats__E                                  
00005a05  ti_sysbios_heaps_HeapMem_initPrimary__I                               
1002dd25  ti_sysbios_heaps_HeapMem_init__I                                      
1002ec59  ti_sysbios_heaps_HeapMem_isBlocking__E                                
00008870  ti_sysbios_heaps_HeapMem_primaryHeapBaseAddr__C                       
00008874  ti_sysbios_heaps_HeapMem_primaryHeapEndAddr__C                        
000081e8  ti_sysbios_heaps_HeapMem_reqAlign__C                                  
00008438  ti_sysbios_heaps_HeapMem_reqAlign__C_offset                           
1002eb13  ti_sysbios_heaps_HeapMem_restore__E                                   
00008060  ti_sysbios_heaps_HeapTrack_A_bufOverflow__C                           
00008360  ti_sysbios_heaps_HeapTrack_A_bufOverflow__C_offset                    
000081e4  ti_sysbios_heaps_HeapTrack_A_doubleFree__C                            
00008434  ti_sysbios_heaps_HeapTrack_A_doubleFree__C_offset                     
00008074  ti_sysbios_heaps_HeapTrack_A_notEmpty__C                              
00008374  ti_sysbios_heaps_HeapTrack_A_notEmpty__C_offset                       
1002e571  ti_sysbios_heaps_HeapTrack_Handle__label__S                           
1002fd9c  ti_sysbios_heaps_HeapTrack_Instance_State_trackQueue__O               
1002c5d9  ti_sysbios_heaps_HeapTrack_Instance_finalize__E                       
1002e595  ti_sysbios_heaps_HeapTrack_Instance_init__E                           
00007fa4  ti_sysbios_heaps_HeapTrack_Module__FXNS__C                            
00008320  ti_sysbios_heaps_HeapTrack_Module__FXNS__C_offset                     
1002fda0  ti_sysbios_heaps_HeapTrack_Module__diagsEnabled__C                    
1002fda4  ti_sysbios_heaps_HeapTrack_Module__diagsIncluded__C                   
1002fda8  ti_sysbios_heaps_HeapTrack_Module__diagsMask__C                       
000082c0  ti_sysbios_heaps_HeapTrack_Module__id__C                              
000084bc  ti_sysbios_heaps_HeapTrack_Module__id__C_offset                       
1002fd80  ti_sysbios_heaps_HeapTrack_Object__PARAMS__C                          
1002e081  ti_sysbios_heaps_HeapTrack_Object__create__S                          
1002e5b9  ti_sysbios_heaps_HeapTrack_Object__delete__S                          
1002eb85  ti_sysbios_heaps_HeapTrack_Params__init__S                            
1002c8c1  ti_sysbios_heaps_HeapTrack_alloc__E                                   
1002e0ad  ti_sysbios_heaps_HeapTrack_create                                     
1002bb01  ti_sysbios_heaps_HeapTrack_free__E                                    
1002e5dd  ti_sysbios_heaps_HeapTrack_getStats__E                                
1002eb91  ti_sysbios_heaps_HeapTrack_isBlocking__E                              
1002e9d1  ti_sysbios_knl_Clock_Instance_finalize__E                             
1002dd59  ti_sysbios_knl_Clock_Instance_init__E                                 
00008260  ti_sysbios_knl_Clock_Module_State_clockQ__O                           
00008478  ti_sysbios_knl_Clock_Module_State_clockQ__O_offset                    
20005444  ti_sysbios_knl_Clock_Module__root__V                                  
20004ea0  ti_sysbios_knl_Clock_Module__state__V                                 
000084e0  ti_sysbios_knl_Clock_Module__state__V_offset                          
1002e601  ti_sysbios_knl_Clock_Module_startup__E                                
00007fdc  ti_sysbios_knl_Clock_Object__DESC__C                                  
00008330  ti_sysbios_knl_Clock_Object__DESC__C_offset                           
1002fcb8  ti_sysbios_knl_Clock_Object__PARAMS__C                                
1002e29d  ti_sysbios_knl_Clock_Object__delete__S                                
200052f4  ti_sysbios_knl_Clock_Object__table__V                                 
1002eb9d  ti_sysbios_knl_Clock_Params__init__S                                  
1002e15d  ti_sysbios_knl_Clock_TimerProxy_Module__startupDone__S                
1002eac5  ti_sysbios_knl_Clock_TimerProxy_getCurrentTick__E                     
1002ecb3  ti_sysbios_knl_Clock_TimerProxy_getExpiredTicks__E                    
1002ead5  ti_sysbios_knl_Clock_TimerProxy_getMaxTicks__E                        
1002ecb7  ti_sysbios_knl_Clock_TimerProxy_getPeriod__E                          
1002eae5  ti_sysbios_knl_Clock_TimerProxy_setNextTick__E                        
1002dcf1  ti_sysbios_knl_Clock_TimerProxy_startup__E                            
1002dcf1  ti_sysbios_knl_Clock_TimerProxy_startup__E                            
1002e625  ti_sysbios_knl_Clock_addI__E                                          
1002dd8d  ti_sysbios_knl_Clock_construct                                        
1002db25  ti_sysbios_knl_Clock_create                                           
1002ecbb  ti_sysbios_knl_Clock_delete                                           
1002e649  ti_sysbios_knl_Clock_destruct                                         
000075ad  ti_sysbios_knl_Clock_doTick__I                                        
00006bd9  ti_sysbios_knl_Clock_getTicksUntilInterrupt__E                        
1002dc11  ti_sysbios_knl_Clock_getTicks__E                                      
00006c85  ti_sysbios_knl_Clock_getTimeout__E                                    
1002eba9  ti_sysbios_knl_Clock_getTimerHandle__E                                
00007811  ti_sysbios_knl_Clock_isActive__E                                      
1002dbd7  ti_sysbios_knl_Clock_logTick__E                                       
1002ecbf  ti_sysbios_knl_Clock_removeI__E                                       
1002e81d  ti_sysbios_knl_Clock_scheduleNextTick__E                              
1002ecc3  ti_sysbios_knl_Clock_setTimeout__E                                    
1002c94d  ti_sysbios_knl_Clock_startI__E                                        
1002e9e7  ti_sysbios_knl_Clock_start__E                                         
1002e2c5  ti_sysbios_knl_Clock_stop__E                                          
00008168  ti_sysbios_knl_Clock_tickMode__C                                      
000083f0  ti_sysbios_knl_Clock_tickMode__C_offset                               
00008878  ti_sysbios_knl_Clock_tickPeriod__C                                    
0000808c  ti_sysbios_knl_Clock_triggerClock__C                                  
00008388  ti_sysbios_knl_Clock_triggerClock__C_offset                           
1002dfa3  ti_sysbios_knl_Clock_triggerFunc__I                                   
1002cbc5  ti_sysbios_knl_Clock_walkQueueDynamic__E                              
1002c53d  ti_sysbios_knl_Clock_workFuncDynamic__E                               
1002cad9  ti_sysbios_knl_Clock_workFunc__E                                      
00008244  ti_sysbios_knl_Event_Instance_State_pendQ__O                          
0000845c  ti_sysbios_knl_Event_Instance_State_pendQ__O_offset                   
1002ec1f  ti_sysbios_knl_Event_Instance_init__E                                 
2000544c  ti_sysbios_knl_Event_Module__root__V                                  
00007f58  ti_sysbios_knl_Event_Object__DESC__C                                  
0000830c  ti_sysbios_knl_Event_Object__DESC__C_offset                           
1002fd30  ti_sysbios_knl_Event_Object__PARAMS__C                                
1002e66d  ti_sysbios_knl_Event_Object__delete__S                                
1002ebb5  ti_sysbios_knl_Event_Params__init__S                                  
1002e83d  ti_sysbios_knl_Event_checkEvents__I                                   
1002e0d9  ti_sysbios_knl_Event_construct                                        
1002deb5  ti_sysbios_knl_Event_create                                           
1002ecc7  ti_sysbios_knl_Event_delete                                           
1002e85d  ti_sysbios_knl_Event_destruct                                         
1002e105  ti_sysbios_knl_Event_pendTimeout__I                                   
1002c0a5  ti_sysbios_knl_Event_pend__E                                          
1002cfb3  ti_sysbios_knl_Event_post__E                                          
1002ea73  ti_sysbios_knl_Event_sync__E                                          
0000884c  ti_sysbios_knl_Idle_funcList__A                                       
00007fd0  ti_sysbios_knl_Idle_funcList__C                                       
00008328  ti_sysbios_knl_Idle_funcList__C_offset                                
1002ec39  ti_sysbios_knl_Idle_loop__E                                           
1002e2ed  ti_sysbios_knl_Idle_run__E                                            
00008000  ti_sysbios_knl_Mailbox_Instance_State_dataQue__O                      
00008338  ti_sysbios_knl_Mailbox_Instance_State_dataQue__O_offset               
00008180  ti_sysbios_knl_Mailbox_Instance_State_dataSem__O                      
0000840c  ti_sysbios_knl_Mailbox_Instance_State_dataSem__O_offset               
000082f8  ti_sysbios_knl_Mailbox_Instance_State_freeQue__O                      
000084d8  ti_sysbios_knl_Mailbox_Instance_State_freeQue__O_offset               
000081d4  ti_sysbios_knl_Mailbox_Instance_State_freeSem__O                      
00008424  ti_sysbios_knl_Mailbox_Instance_State_freeSem__O_offset               
1002d2b5  ti_sysbios_knl_Mailbox_Instance_finalize__E                           
1002c48d  ti_sysbios_knl_Mailbox_Instance_init__E                               
20005454  ti_sysbios_knl_Mailbox_Module__root__V                                
1002da2d  ti_sysbios_knl_Mailbox_Module_startup__E                              
00008144  ti_sysbios_knl_Mailbox_Object__DESC__C                                
000083e8  ti_sysbios_knl_Mailbox_Object__DESC__C_offset                         
1002fbdc  ti_sysbios_knl_Mailbox_Object__PARAMS__C                              
00008250  ti_sysbios_knl_Mailbox_Object__count__C                               
00008468  ti_sysbios_knl_Mailbox_Object__count__C_offset                        
1002e315  ti_sysbios_knl_Mailbox_Object__delete__S                              
1002e33d  ti_sysbios_knl_Mailbox_Object__get__S                                 
00008034  ti_sysbios_knl_Mailbox_Object__table__C                               
00008350  ti_sysbios_knl_Mailbox_Object__table__C_offset                        
1002ebc1  ti_sysbios_knl_Mailbox_Params__init__S                                
1002d4d1  ti_sysbios_knl_Mailbox_construct                                      
1002d311  ti_sysbios_knl_Mailbox_create                                         
1002eccb  ti_sysbios_knl_Mailbox_delete                                         
1002e691  ti_sysbios_knl_Mailbox_destruct                                       
0000823c  ti_sysbios_knl_Mailbox_maxTypeAlign__C                                
00008454  ti_sysbios_knl_Mailbox_maxTypeAlign__C_offset                         
1002d581  ti_sysbios_knl_Mailbox_pend__E                                        
1002e405  ti_sysbios_knl_Mailbox_postInit__I                                    
1002cf49  ti_sysbios_knl_Mailbox_post__E                                        
1002ec5f  ti_sysbios_knl_Queue_Instance_init__E                                 
2000545c  ti_sysbios_knl_Queue_Module__root__V                                  
000080a8  ti_sysbios_knl_Queue_Object__DESC__C                                  
000083a8  ti_sysbios_knl_Queue_Object__DESC__C_offset                           
1002fd48  ti_sysbios_knl_Queue_Object__PARAMS__C                                
00008138  ti_sysbios_knl_Queue_Object__count__C                                 
000083dc  ti_sysbios_knl_Queue_Object__count__C_offset                          
1002e6b5  ti_sysbios_knl_Queue_Object__delete__S                                
1002e87d  ti_sysbios_knl_Queue_Object__get__S                                   
000081d8  ti_sysbios_knl_Queue_Object__table__C                                 
00008428  ti_sysbios_knl_Queue_Object__table__C_offset                          
1002dee5  ti_sysbios_knl_Queue_construct                                        
1002df15  ti_sysbios_knl_Queue_create                                           
1002eccf  ti_sysbios_knl_Queue_delete                                           
1002ebcd  ti_sysbios_knl_Queue_dequeue__E                                       
1002e89d  ti_sysbios_knl_Queue_destruct                                         
1002ec65  ti_sysbios_knl_Queue_elemClear__E                                     
1002eb21  ti_sysbios_knl_Queue_empty__E                                         
1002ebd9  ti_sysbios_knl_Queue_enqueue__E                                       
1002e951  ti_sysbios_knl_Queue_get__E                                           
1002ecd3  ti_sysbios_knl_Queue_head__E                                          
0000772d  ti_sysbios_knl_Queue_insert__E                                        
1002ecd7  ti_sysbios_knl_Queue_next__E                                          
1002e96d  ti_sysbios_knl_Queue_put__E                                           
1002eb2f  ti_sysbios_knl_Queue_remove__E                                        
0000827c  ti_sysbios_knl_Semaphore_Instance_State_pendQ__O                      
00008494  ti_sysbios_knl_Semaphore_Instance_State_pendQ__O_offset               
1002e6d9  ti_sysbios_knl_Semaphore_Instance_finalize__E                         
1002d01d  ti_sysbios_knl_Semaphore_Instance_init__E                             
20005464  ti_sysbios_knl_Semaphore_Module__root__V                              
000081f0  ti_sysbios_knl_Semaphore_Object__DESC__C                              
00008440  ti_sysbios_knl_Semaphore_Object__DESC__C_offset                       
1002fcdc  ti_sysbios_knl_Semaphore_Object__PARAMS__C                            
1002e365  ti_sysbios_knl_Semaphore_Object__delete__S                            
1002ebe5  ti_sysbios_knl_Semaphore_Params__init__S                              
1002ddc1  ti_sysbios_knl_Semaphore_construct                                    
1002dc49  ti_sysbios_knl_Semaphore_create                                       
1002ecdb  ti_sysbios_knl_Semaphore_delete                                       
1002e6fd  ti_sysbios_knl_Semaphore_destruct                                     
000081dc  ti_sysbios_knl_Semaphore_eventPost__C                                 
0000842c  ti_sysbios_knl_Semaphore_eventPost__C_offset                          
00008004  ti_sysbios_knl_Semaphore_eventSync__C                                 
0000833c  ti_sysbios_knl_Semaphore_eventSync__C_offset                          
1002e131  ti_sysbios_knl_Semaphore_pendTimeout__I                               
1002bfb1  ti_sysbios_knl_Semaphore_pend__E                                      
1002cd21  ti_sysbios_knl_Semaphore_post__E                                      
1002e721  ti_sysbios_knl_Swi_Handle__label__S                                   
1002e42b  ti_sysbios_knl_Swi_Instance_finalize__E                               
1002d36d  ti_sysbios_knl_Swi_Instance_init__E                                   
20005240  ti_sysbios_knl_Swi_Module_State_0_readyQ__A                           
00008096  ti_sysbios_knl_Swi_Module__id__C                                      
00008394  ti_sysbios_knl_Swi_Module__id__C_offset                               
2000546c  ti_sysbios_knl_Swi_Module__root__V                                    
20004f04  ti_sysbios_knl_Swi_Module__state__V                                   
000084f4  ti_sysbios_knl_Swi_Module__state__V_offset                            
1002e745  ti_sysbios_knl_Swi_Module_startup__E                                  
0000803c  ti_sysbios_knl_Swi_Object__DESC__C                                    
00008358  ti_sysbios_knl_Swi_Object__DESC__C_offset                             
1002fc6c  ti_sysbios_knl_Swi_Object__PARAMS__C                                  
00007fcc  ti_sysbios_knl_Swi_Object__count__C                                   
00008324  ti_sysbios_knl_Swi_Object__count__C_offset                            
1002e769  ti_sysbios_knl_Swi_Object__delete__S                                  
1002e38d  ti_sysbios_knl_Swi_Object__get__S                                     
00008090  ti_sysbios_knl_Swi_Object__table__C                                   
0000838c  ti_sysbios_knl_Swi_Object__table__C_offset                            
20005270  ti_sysbios_knl_Swi_Object__table__V                                   
1002ebf1  ti_sysbios_knl_Swi_Params__init__S                                    
1002d719  ti_sysbios_knl_Swi_construct                                          
00007281  ti_sysbios_knl_Swi_construct2__E                                      
1002d765  ti_sysbios_knl_Swi_create                                             
1002ecdf  ti_sysbios_knl_Swi_delete                                             
1002e8bd  ti_sysbios_knl_Swi_destruct                                           
1002ea25  ti_sysbios_knl_Swi_disable__E                                         
1002ea39  ti_sysbios_knl_Swi_enabled__E                                         
00007739  ti_sysbios_knl_Swi_getTrigger__E                                      
0000816c  ti_sysbios_knl_Swi_numPriorities__C                                   
000083f8  ti_sysbios_knl_Swi_numPriorities__C_offset                            
000073dd  ti_sysbios_knl_Swi_or__E                                              
1002ece3  ti_sysbios_knl_Swi_postInit__I                                        
1002d891  ti_sysbios_knl_Swi_post__E                                            
1002c9d5  ti_sysbios_knl_Swi_restoreHwi__E                                      
1002db61  ti_sysbios_knl_Swi_restore__E                                         
1002d081  ti_sysbios_knl_Swi_runLoop__I                                         
1002cd91  ti_sysbios_knl_Swi_run__I                                             
1002d0e1  ti_sysbios_knl_Swi_schedule__I                                        
1002ebfd  ti_sysbios_knl_Swi_self__E                                            
1002ec6b  ti_sysbios_knl_Swi_startup__E                                         
1002e78d  ti_sysbios_knl_Task_Handle__label__S                                  
20004580  ti_sysbios_knl_Task_Instance_State_0_stack__A                         
1002c671  ti_sysbios_knl_Task_Instance_finalize__E                              
1002c251  ti_sysbios_knl_Task_Instance_init__E                                  
20005494  ti_sysbios_knl_Task_Module_State_0_idleTask__A                        
200052a0  ti_sysbios_knl_Task_Module_State_0_readyQ__A                          
0000802c  ti_sysbios_knl_Task_Module_State_inactiveQ__O                         
00008344  ti_sysbios_knl_Task_Module_State_inactiveQ__O_offset                  
00007ffc  ti_sysbios_knl_Task_Module__id__C                                     
00008334  ti_sysbios_knl_Task_Module__id__C_offset                              
20005474  ti_sysbios_knl_Task_Module__root__V                                   
20004f20  ti_sysbios_knl_Task_Module__state__V                                  
000084f8  ti_sysbios_knl_Task_Module__state__V_offset                           
1002d141  ti_sysbios_knl_Task_Module_startup__E                                 
000080d0  ti_sysbios_knl_Task_Object__DESC__C                                   
000083b4  ti_sysbios_knl_Task_Object__DESC__C_offset                            
1002fba0  ti_sysbios_knl_Task_Object__PARAMS__C                                 
000082cc  ti_sysbios_knl_Task_Object__count__C                                  
000084c8  ti_sysbios_knl_Task_Object__count__C_offset                           
1002e3b5  ti_sysbios_knl_Task_Object__delete__S                                 
1002e7b1  ti_sysbios_knl_Task_Object__get__S                                    
0000887c  ti_sysbios_knl_Task_Object__heap__C                                   
00008140  ti_sysbios_knl_Task_Object__table__C                                  
000083e4  ti_sysbios_knl_Task_Object__table__C_offset                           
2000510c  ti_sysbios_knl_Task_Object__table__V                                  
1002ec09  ti_sysbios_knl_Task_Params__init__S                                   
1002ec8f  ti_sysbios_knl_Task_SupportProxy_Module__startupDone__S               
1002eab5  ti_sysbios_knl_Task_SupportProxy_getStackAlignment__E                 
1002eab5  ti_sysbios_knl_Task_SupportProxy_getStackAlignment__E                 
1002dae9  ti_sysbios_knl_Task_SupportProxy_start__E                             
1002dae9  ti_sysbios_knl_Task_SupportProxy_start__E                             
1002fb77  ti_sysbios_knl_Task_SupportProxy_swap__E                              
1002fb77  ti_sysbios_knl_Task_SupportProxy_swap__E                              
00008248  ti_sysbios_knl_Task_allBlockedFunc__C                                 
00008460  ti_sysbios_knl_Task_allBlockedFunc__C_offset                          
1002d67d  ti_sysbios_knl_Task_allBlockedFunction__I                             
1002d7b1  ti_sysbios_knl_Task_blockI__E                                         
1002d5d9  ti_sysbios_knl_Task_construct                                         
1002d529  ti_sysbios_knl_Task_create                                            
000082b4  ti_sysbios_knl_Task_defaultStackHeap__C                               
000084b0  ti_sysbios_knl_Task_defaultStackHeap__C_offset                        
0000826c  ti_sysbios_knl_Task_defaultStackSize__C                               
00008484  ti_sysbios_knl_Task_defaultStackSize__C_offset                        
1002ece7  ti_sysbios_knl_Task_delete                                            
1002e7d5  ti_sysbios_knl_Task_destruct                                          
1002ea4d  ti_sysbios_knl_Task_disable__E                                        
1002ec71  ti_sysbios_knl_Task_enable__E                                         
1002e7f9  ti_sysbios_knl_Task_enter__I                                          
1002db9d  ti_sysbios_knl_Task_exit__E                                           
00007815  ti_sysbios_knl_Task_getArg1__E                                        
00007819  ti_sysbios_knl_Task_getEnv__E                                         
00008178  ti_sysbios_knl_Task_initStackFlag__C                                  
00008404  ti_sysbios_knl_Task_initStackFlag__C_offset                           
00008170  ti_sysbios_knl_Task_numConstructedTasks__C                            
000083fc  ti_sysbios_knl_Task_numConstructedTasks__C_offset                     
1002ca59  ti_sysbios_knl_Task_postInit__I                                       
1002dc81  ti_sysbios_knl_Task_processVitalTaskFlag__I                           
1002e3dd  ti_sysbios_knl_Task_restoreHwi__E                                     
1002df45  ti_sysbios_knl_Task_restore__E                                        
1002cc39  ti_sysbios_knl_Task_schedule__I                                       
1002eaf5  ti_sysbios_knl_Task_self__E                                           
000043e1  ti_sysbios_knl_Task_setPri__E                                         
1002e989  ti_sysbios_knl_Task_sleepTimeout__I                                   
1002ce01  ti_sysbios_knl_Task_sleep__E                                          
1002ccad  ti_sysbios_knl_Task_startCore__E                                      
1002eceb  ti_sysbios_knl_Task_startup__E                                        
1002fb83  ti_sysbios_knl_Task_swapReturn                                        
1002dcb9  ti_sysbios_knl_Task_unblockI__E                                       
1002e9a3  ti_sysbios_knl_Task_unblock__E                                        
1002d7fd  ti_sysbios_knl_Task_yield__E                                          
1002b400  ti_sysbios_rom_cortexm_cc26xx_cc26x2v2_CC26xx_REVISION__C             
000073f5  ti_sysbios_rts_ti_ReentSupport_getReent__E                            
000073f5  ti_sysbios_rts_ti_ReentSupport_getReent__F                            
00007763  ti_sysbios_rts_ti_ReentSupport_getTlsAddr__I                          
00008510  tiposix_mqGate                                                        
20005034  txPowerTable                                                          
20004d84  uart                                                                  
20004780  uartCC26XXObjects                                                     
00003b59  uartThread                                                            
00006c05  uartsendThread                                                        
20000100  xdcRomConstPtr                                                        
20000104  xdcRomExternFuncPtr                                                   
20000108  xdcRomStatePtr                                                        
00000001  xdc_rov_runtime_Mon__checksum                                         
00000001  xdc_rov_runtime_Mon__write                                            
000080f0  xdc_runtime_Assert_E_assertFailed__C                                  
000083b8  xdc_runtime_Assert_E_assertFailed__C_offset                           
1002f421  xdc_runtime_Assert_raise__I                                           
1002f659  xdc_runtime_Core_assignLabel__I                                       
1002f4c9  xdc_runtime_Core_assignParams__I                                      
1002f511  xdc_runtime_Core_constructObject__I                                   
1002f2f9  xdc_runtime_Core_createObject__I                                      
1002f367  xdc_runtime_Core_deleteObject__I                                      
1002f803  xdc_runtime_Core_destructObject__I                                    
000081cc  xdc_runtime_Error_E_memory__C                                         
0000841c  xdc_runtime_Error_E_memory__C_offset                                  
20005314  xdc_runtime_Error_IgnoreBlock                                         
1002f779  xdc_runtime_Error_check__E                                            
0000740d  xdc_runtime_Error_init__E                                             
0000806c  xdc_runtime_Error_policyFxn__C                                        
0000836c  xdc_runtime_Error_policyFxn__C_offset                                 
00007129  xdc_runtime_Error_policyMin__E                                        
1002f1f7  xdc_runtime_Error_policySpin__E                                       
00007f48  xdc_runtime_Error_policy__C                                           
00008300  xdc_runtime_Error_policy__C_offset                                    
1002f739  xdc_runtime_Error_raiseX__E                                           
1002f91b  xdc_runtime_Gate_enterSystem__E                                       
1002f90f  xdc_runtime_Gate_leaveSystem__E                                       
00008270  xdc_runtime_IGateProvider_Interface__BASE__C                          
00008488  xdc_runtime_IGateProvider_Interface__BASE__C_offset                   
000080f8  xdc_runtime_IHeap_Interface__BASE__C                                  
000083c0  xdc_runtime_IHeap_Interface__BASE__C_offset                           
00007f4c  xdc_runtime_IModule_Interface__BASE__C                                
00008304  xdc_runtime_IModule_Interface__BASE__C_offset                         
1002e499  xdc_runtime_Main_Module_GateProxy_Handle__label__S                    
1002ec93  xdc_runtime_Main_Module_GateProxy_query__E                            
00008880  xdc_runtime_Main_Module__diagsEnabled__C                              
00008884  xdc_runtime_Main_Module__diagsIncluded__C                             
00008888  xdc_runtime_Main_Module__diagsMask__C                                 
00008776  xdc_runtime_Main_Module__id__C                                        
1002e529  xdc_runtime_Memory_HeapProxy_Handle__label__S                         
1002f8f1  xdc_runtime_Memory_HeapProxy_alloc__E                                 
1002f8fb  xdc_runtime_Memory_HeapProxy_free__E                                  
1002f905  xdc_runtime_Memory_HeapProxy_getStats__E                              
00008094  xdc_runtime_Memory_Module__id__C                                      
00008390  xdc_runtime_Memory_Module__id__C_offset                               
20004f64  xdc_runtime_Memory_Module__state__V                                   
000084fc  xdc_runtime_Memory_Module__state__V_offset                            
1002f289  xdc_runtime_Memory_alloc__E                                           
1002f8d9  xdc_runtime_Memory_calloc__E                                          
000082f4  xdc_runtime_Memory_defaultHeapInstance__C                             
000084d4  xdc_runtime_Memory_defaultHeapInstance__C_offset                      
1002f81d  xdc_runtime_Memory_free__E                                            
1002f8a9  xdc_runtime_Memory_getMaxDefaultTypeAlign__E                          
1002f831  xdc_runtime_Memory_getStats__E                                        
1002f795  xdc_runtime_Memory_valloc__E                                          
20004ed8  xdc_runtime_Registry_Module__state__V                                 
000084ec  xdc_runtime_Registry_Module__state__V_offset                          
1002f759  xdc_runtime_Registry_findById__E                                      
20004ed0  xdc_runtime_Startup_Module__state__V                                  
000084e8  xdc_runtime_Startup_Module__state__V_offset                           
00000001  xdc_runtime_Startup__EXECFXN__C                                       
00000001  xdc_runtime_Startup__RESETFXN__C                                      
00007f9c  xdc_runtime_Startup_execImpl__C                                       
00008318  xdc_runtime_Startup_execImpl__C_offset                                
1002f475  xdc_runtime_Startup_exec__E                                           
0000729d  xdc_runtime_Startup_exec__I                                           
00008810  xdc_runtime_Startup_firstFxns__A                                      
00008078  xdc_runtime_Startup_firstFxns__C                                      
00008378  xdc_runtime_Startup_firstFxns__C_offset                               
00005a61  xdc_runtime_Startup_getState__I                                       
00007f50  xdc_runtime_Startup_lastFxns__C                                       
00008308  xdc_runtime_Startup_lastFxns__C_offset                                
00008174  xdc_runtime_Startup_maxPasses__C                                      
00008400  xdc_runtime_Startup_maxPasses__C_offset                               
0000781d  xdc_runtime_Startup_reset__I                                          
1002f8e5  xdc_runtime_Startup_rtsDone__E                                        
000087b4  xdc_runtime_Startup_sfxnRts__A                                        
000081ec  xdc_runtime_Startup_sfxnRts__C                                        
0000843c  xdc_runtime_Startup_sfxnRts__C_offset                                 
000086fc  xdc_runtime_Startup_sfxnTab__A                                        
000082fc  xdc_runtime_Startup_sfxnTab__C                                        
000084dc  xdc_runtime_Startup_sfxnTab__C_offset                                 
00008278  xdc_runtime_Startup_startModsFxn__C                                   
00008490  xdc_runtime_Startup_startModsFxn__C_offset                            
1002f055  xdc_runtime_Startup_startMods__I                                      
1002f91f  xdc_runtime_SysCallback_Module__startupDone__S                        
000082b0  xdc_runtime_SysCallback_abortFxn__C                                   
000084ac  xdc_runtime_SysCallback_abortFxn__C_offset                            
1002f845  xdc_runtime_SysCallback_abort__E                                      
00005487  xdc_runtime_SysCallback_defaultAbort                                  
000054f7  xdc_runtime_SysCallback_defaultExit                                   
0000582b  xdc_runtime_SysCallback_defaultFlush                                  
00005b17  xdc_runtime_SysCallback_defaultPutch                                  
00007821  xdc_runtime_SysCallback_defaultReady                                  
000080fc  xdc_runtime_SysCallback_exitFxn__C                                    
000083c4  xdc_runtime_SysCallback_exitFxn__C_offset                             
1002f859  xdc_runtime_SysCallback_exit__E                                       
00008098  xdc_runtime_SysCallback_flushFxn__C                                   
00008398  xdc_runtime_SysCallback_flushFxn__C_offset                            
1002f86d  xdc_runtime_SysCallback_flush__E                                      
00008230  xdc_runtime_SysCallback_putchFxn__C                                   
00008448  xdc_runtime_SysCallback_putchFxn__C_offset                            
1002f881  xdc_runtime_SysCallback_putch__E                                      
00008264  xdc_runtime_SysCallback_readyFxn__C                                   
0000847c  xdc_runtime_SysCallback_readyFxn__C_offset                            
1002f895  xdc_runtime_SysCallback_ready__E                                      
1002e499  xdc_runtime_System_Module_GateProxy_Handle__label__S                  
1002f923  xdc_runtime_System_Module_GateProxy_enter__E                          
1002f927  xdc_runtime_System_Module_GateProxy_leave__E                          
1002ec93  xdc_runtime_System_Module_GateProxy_query__E                          
1002ec93  xdc_runtime_System_Module_GateProxy_query__E                          
2000547c  xdc_runtime_System_Module_State_0_atexitHandlers__A                   
20004f68  xdc_runtime_System_Module__state__V                                   
00008500  xdc_runtime_System_Module__state__V_offset                            
1002f915  xdc_runtime_System_Module_startup__E                                  
1002f91f  xdc_runtime_System_SupportProxy_Module__startupDone__S                
1002f845  xdc_runtime_System_SupportProxy_abort__E                              
1002f859  xdc_runtime_System_SupportProxy_exit__E                               
1002f86d  xdc_runtime_System_SupportProxy_flush__E                              
1002f881  xdc_runtime_System_SupportProxy_putch__E                              
1002f895  xdc_runtime_System_SupportProxy_ready__E                              
0000817c  xdc_runtime_System_abortFxn__C                                        
00008408  xdc_runtime_System_abortFxn__C_offset                                 
1002f81b  xdc_runtime_System_abortSpin__E                                       
1002f711  xdc_runtime_System_abort__E                                           
1002f559  xdc_runtime_System_atexit__E                                          
1002ecf1  xdc_runtime_System_doPrint__I                                         
000081e0  xdc_runtime_System_exitFxn__C                                         
00008430  xdc_runtime_System_exitFxn__C_offset                                  
1002f92f  xdc_runtime_System_exitSpin__E                                        
1002f7b1  xdc_runtime_System_exit__E                                            
00008280  xdc_runtime_System_extendFxn__C                                       
00008498  xdc_runtime_System_extendFxn__C_offset                                
1002f86d  xdc_runtime_System_flush__E                                           
00005489  xdc_runtime_System_formatNum__I                                       
00008134  xdc_runtime_System_maxAtexitHandlers__C                               
000083d8  xdc_runtime_System_maxAtexitHandlers__C_offset                        
00002169  xdc_runtime_System_printfExtend__I                                    
1002f7e9  xdc_runtime_System_printf__E                                          
1002f92b  xdc_runtime_System_printf_va__F                                       
1002f5e5  xdc_runtime_System_processAtExit__E                                   
1002f625  xdc_runtime_System_putchar__I                                         
1002f6b9  xdc_runtime_System_vprintf__E                                         
1002f8b9  xdc_runtime_System_vsnprintf__E                                       
0000805c  xdc_runtime_Text_charCnt__C                                           
0000835c  xdc_runtime_Text_charCnt__C_offset                                    
0000888c  xdc_runtime_Text_charTab__A                                           
00008080  xdc_runtime_Text_charTab__C                                           
0000837c  xdc_runtime_Text_charTab__C_offset                                    
1002f6e5  xdc_runtime_Text_cordText__E                                          
00007fd8  xdc_runtime_Text_isLoaded__C                                          
0000832c  xdc_runtime_Text_isLoaded__C_offset                                   
000082a4  xdc_runtime_Text_nameEmpty__C                                         
000084a0  xdc_runtime_Text_nameEmpty__C_offset                                  
00008254  xdc_runtime_Text_nameStatic__C                                        
0000846c  xdc_runtime_Text_nameStatic__C_offset                                 
000082f0  xdc_runtime_Text_nameUnknown__C                                       
000084d0  xdc_runtime_Text_nameUnknown__C_offset                                
1002f689  xdc_runtime_Text_printVisFxn__I                                       
1002f3c5  xdc_runtime_Text_putLab__E                                            
1002f1f9  xdc_runtime_Text_putMod__E                                            
1002f15d  xdc_runtime_Text_putSite__E                                           
0000813c  xdc_runtime_Text_registryModsLastId__C                                
000083e0  xdc_runtime_Text_registryModsLastId__C_offset                         
1002f7cd  xdc_runtime_Text_ropeText__E                                          
00008268  xdc_runtime_Text_unnamedModsLastId__C                                 
00008480  xdc_runtime_Text_unnamedModsLastId__C_offset                          
000082ac  xdc_runtime_Text_visitRopeFxn__C                                      
000084a8  xdc_runtime_Text_visitRopeFxn__C_offset                               
0000778d  xdc_runtime_Text_visitRope__I                                         
1002f5a1  xdc_runtime_Text_xprintf__I                                           
1002f8c9  xdc_runtime_Timestamp_SupportProxy_get32__E                           
1002f8c9  xdc_runtime_Timestamp_SupportProxy_get32__E                           
1002dffd  xdc_runtime_Timestamp_SupportProxy_get64__E                           
1002dffd  xdc_runtime_Timestamp_SupportProxy_get64__E                           
1002eb3d  xdc_runtime_Timestamp_SupportProxy_getFreq__E                         
1002eb3d  xdc_runtime_Timestamp_SupportProxy_getFreq__E                         
1002f8c9  xdc_runtime_Timestamp_get32__E                                        
1002f8c9  xdc_runtime_Timestamp_get32__E                                        
1002dffd  xdc_runtime_Timestamp_get64__E                                        
1002dffd  xdc_runtime_Timestamp_get64__E                                        
1002eb3d  xdc_runtime_Timestamp_getFreq__E                                      
1002eb3d  xdc_runtime_Timestamp_getFreq__E                                      


GLOBAL SYMBOLS: SORTED BY Symbol Address 

address   name                                                                  
-------   ----                                                                  
00000000  __ASM__                                                               
00000000  __TI_static_base__                                                    
00000000  ti_sysbios_family_arm_m3_Hwi_resetVectors                             
00000001  xdc_rov_runtime_Mon__checksum                                         
00000001  xdc_rov_runtime_Mon__write                                            
00000001  xdc_runtime_Startup__EXECFXN__C                                       
00000001  xdc_runtime_Startup__RESETFXN__C                                      
0000003d  EasyLink_init                                                         
000000ad  __ISA__                                                               
000000c0  __PLAT__                                                              
000000e7  __TARG__                                                              
0000010d  __TRDR__                                                              
00000400  __STACK_SIZE                                                          
00000bc9  EasyLink_transmit                                                     
00000e79  RF_open                                                               
000010d5  RF_scheduleCmd                                                        
000012d9  PIN_init                                                              
0000149d  __aeabi_dsub                                                          
000014a7  __aeabi_dadd                                                          
00001653  NOROM_RFCCpePatchReset                                                
00001655  Power_sleep                                                           
000017fd  mq_open                                                               
00001e51  Power_init                                                            
00002169  xdc_runtime_System_printfExtend__I                                    
000022f1  UARTCC26XX_open                                                       
000025a9  UARTCC26XX_hwiIntFxn                                                  
00002845  RF_close                                                              
00002985  UARTCC26XX_read                                                       
00002ac1  rfEasyLinkTxFnx                                                       
00002f5f  _nop                                                                  
00003061  main                                                                  
00003161  NOROM_SysCtrlStandby                                                  
00003359  __aeabi_dmul                                                          
0000363d  pthread_create                                                        
00003729  UARTCC26XX_write                                                      
00003809  RF_postCmd                                                            
000038e1  RF_pendCmd                                                            
00003b59  uartThread                                                            
00003c25  Power_releaseDependency                                               
00003db5  Power_setDependency                                                   
00003ff1  PowerCC26XX_standbyPolicy                                             
00004000  HEAPSIZE                                                              
000040a5  PIN_open                                                              
000042a1  RXSetup                                                               
00004341  __TI_auto_init                                                        
000043e1  ti_sysbios_knl_Task_setPri__E                                         
0000451d  __aeabi_memcpy                                                        
0000451d  __aeabi_memcpy4                                                       
0000451d  __aeabi_memcpy8                                                       
0000451d  memcpy                                                                
000045b9  NOROM_SetupTrimDevice                                                 
000045b9  ti_sysbios_family_arm_cc26xx_Boot_trimDevice                          
000046e9  __aeabi_uldivmod                                                      
0000477f  UARTCC26XX_writeCancel                                                
0000492d  NOROM_OSCHF_AttemptToSwitchToXosc                                     
000049b5  RF_getTxPower                                                         
00004a3d  _pthread_removeThreadKeys                                             
00004c5d  __aeabi_cdcmpeq                                                       
00004c5d  __aeabi_cdcmple                                                       
00004ce3  __aeabi_cdrcmple                                                      
00004d69  CC1352P1_LAUNCHXL_sendExtFlashByte                                    
00004ef5  UARTCC26XX_close                                                      
00004f79  ti_sysbios_family_arm_m3_Hwi_excHandlerMin__I                         
00004ffd  ti_sysbios_family_arm_cc26xx_Timer_start__E                           
000050f9  __aeabi_memclr                                                        
000050f9  __aeabi_memclr4                                                       
000050f9  __aeabi_memclr8                                                       
000050fb  __aeabi_memset                                                        
000050fb  __aeabi_memset4                                                       
000050fb  __aeabi_memset8                                                       
00005101  memset                                                                
00005173  __aeabi_idiv0                                                         
00005173  __aeabi_ldiv0                                                         
00005175  PowerCC26X2_auxISR                                                    
0000525b  NOROM_RFCAnaDivTxOverride                                             
000052cb  ti_sysbios_BIOS_nullFunc__I                                           
00005419  __aeabi_ldivmod                                                       
00005487  xdc_runtime_SysCallback_defaultAbort                                  
00005489  xdc_runtime_System_formatNum__I                                       
000054f7  xdc_runtime_SysCallback_defaultExit                                   
000054f9  RF_getCurrentTime                                                     
00005565  NOROM_OSCHF_SwitchToRcOscTurnOffXosc                                  
000055cd  NOROM_SysCtrlSetRechargeBeforePowerDown                               
00005635  __TI_decompress_lzss                                                  
0000569d  NOROM_OSC_HPOSCRtcCompensate                                          
00005765  UARTCC26XX_control                                                    
000057c9  UARTCC26XX_swiIntFxn                                                  
0000582b  xdc_runtime_SysCallback_defaultFlush                                  
0000594d  PIN_remove                                                            
00005a05  ti_sysbios_heaps_HeapMem_initPrimary__I                               
00005a61  xdc_runtime_Startup_getState__I                                       
00005abd  createTxAdvFromTx                                                     
00005b17  xdc_runtime_SysCallback_defaultPutch                                  
00005b19  PowerCC26X2_initiateCalibration                                       
00005c21  ResetISR                                                              
00005c21  _c_int00                                                              
00005c79  pthread_exit                                                          
00005cd1  RF_defaultSubmitPolicy                                                
00005d29  NOROM_ChipInfo_GetChipType                                            
00005d7d  ClockP_construct                                                      
00005e1d  mq_send                                                               
00005e6d  CC1352P1_LAUNCHXL_wakeUpExtFlash                                      
00005eb9  UARTCC26XX_readCancel                                                 
00005f05  copy_in                                                               
00005fe9  NOROM_RFCSynthPowerDown                                               
00006031  PIN_setOutputEnable                                                   
00006079  PowerCC26X2_RCOSC_clockFunc                                           
000060c1  PowerCC26XX_switchXOSC_HF                                             
00006109  __aeabi_d2iz                                                          
00006199  RingBuf_put                                                           
000061e1  NOROM_ChipInfo_GetHwRevision                                          
00006269  UART_init                                                             
000062ad  __aeabi_d2uiz                                                         
000062f1  CC1352P1_LAUNCHXL_shutDownExtFlash                                    
00006331  PowerCC26XX_isStableXOSC_HF                                           
00006371  RingBuf_get                                                           
000063b1  UART_open                                                             
000063f1  __aeabi_uidiv                                                         
000063f1  __aeabi_uidivmod                                                      
00006431  ti_sysbios_family_arm_cc26xx_Timer_setThreshold__I                    
00006471  HwiP_construct                                                        
000064b1  PIN_setOutputValue                                                    
00006565  SwiP_construct                                                        
000065a1  initRfFrontend                                                        
000065dd  ti_sysbios_family_arm_m3_Hwi_construct2__E                            
00006619  NOROM_OSC_HPOSCRelativeFrequencyOffsetGet                             
00006651  PIN_setConfig                                                         
000066c1  RF_powerConstraintRelease                                             
000066f9  mq_receive                                                            
000067a1  __aeabi_f2d                                                           
00006811  ti_sysbios_family_arm_cc26xx_Timer_setNextTick__E                     
00006849  NOROM_AUXSYSIFOpModeChange                                            
0000687d  NOROM_SysCtrlIdle                                                     
000068e5  rand                                                                  
0000694d  PINCC26XX_setMux                                                      
0000697d  Power_releaseConstraint                                               
000069ad  Power_setConstraint                                                   
000069dd  rf_patch_cpe_multi_protocol                                           
00006a0d  ti_sysbios_BIOS_atExitFunc__I                                         
00006a3d  ti_sysbios_BIOS_startFunc__I                                          
00006a6d  ti_sysbios_family_arm_cc26xx_Timer_getCurrentTick__E                  
00006a9d  ti_sysbios_family_arm_cc26xx_Timer_initDevice__I                      
00006afb  __aeabi_i2d                                                           
00006b55  SemaphoreP_constructBinary                                            
00006bad  pthread_setcancelstate                                                
00006bd9  ti_sysbios_knl_Clock_getTicksUntilInterrupt__E                        
00006c05  uartsendThread                                                        
00006c31  List_insert                                                           
00006c85  ti_sysbios_knl_Clock_getTimeout__E                                    
00006cb1  NOROM_OSCHF_TurnOnXosc                                                
00006cd9  NOROM_RFCOverrideSearch                                               
00006d01  Power_registerNotify                                                  
00006d51  RF_runCmd                                                             
00006dc9  List_put                                                              
00006def  List_putHead                                                          
00006e15  List_remove                                                           
00006e3d  NOROM_RFCDoorbellSendTo                                               
00006ecd  _pthread_cleanupFxn                                                   
00006f15  pthread_attr_init                                                     
00006f39  ti_sysbios_BIOS_registerRTSLock__I                                    
00006f5d  ti_sysbios_BIOS_removeRTSLock__I                                      
00006f81  ti_sysbios_family_arm_cc26xx_Timer_getMaxTicks__E                     
00006fa5  List_get                                                              
00006fc7  HwiP_setFunc                                                          
00007009  Power_unregisterNotify                                                
000070e9  ti_sysbios_BIOS_rtsLock__I                                            
00007109  ti_sysbios_family_arm_cc26xx_Timer_dynamicStub__E                     
00007129  xdc_runtime_Error_policyMin__E                                        
00007149  PIN_close                                                             
00007167  Power_getTransitionLatency                                            
00007185  Board_init                                                            
000071a1  NOROM_ChipInfo_GetChipFamily                                          
000071d9  PowerCC26XX_schedulerDisable                                          
000071f5  PowerCC26XX_schedulerRestore                                          
00007249  RF_powerConstraintSet                                                 
00007281  ti_sysbios_knl_Swi_construct2__E                                      
0000729d  xdc_runtime_Startup_exec__I                                           
000072b9  PowerCC26XX_calibrate                                                 
00007305  NOROM_ChipInfo_GetPackageType                                         
0000731d  Power_idleFunc                                                        
00007335  RF_ScheduleCmdParams_init                                             
00007365  UART_Params_init                                                      
0000737d  _args_main                                                            
00007395  __aeabi_lmul                                                          
000073ad  strcmp                                                                
000073c5  ti_sysbios_BIOS_rtsUnlock__I                                          
000073dd  ti_sysbios_knl_Swi_or__E                                              
000073f5  ti_sysbios_rts_ti_ReentSupport_getReent__E                            
000073f5  ti_sysbios_rts_ti_ReentSupport_getReent__F                            
0000740d  xdc_runtime_Error_init__E                                             
0000743b  NOROM_ThisLibraryIsFor_CC13x2_CC26x2_HwRev20AndLater_HaltIfViolated   
00007467  _pthread_cleanup_pop                                                  
0000747d  ti_sysbios_BIOS_exitFunc__I                                           
000074a9  EasyLink_Params_init                                                  
000074bd  List_clearList                                                        
000074d1  NOROM_RFCCpeIntGetAndClear                                            
000074e5  PIN_getOutputValue                                                    
000074f9  PowerCC26X2_calibrate                                                 
0000750d  RF_Params_init                                                        
0000755d  pthread_attr_setschedparam                                            
00007571  strcpy                                                                
00007599  ti_sysbios_family_arm_cc26xx_Timer_getCount64__E                      
000075ad  ti_sysbios_knl_Clock_doTick__I                                        
000075c1  RingBuf_construct                                                     
000075d3  SemaphoreP_pend                                                       
000075f7  ClockP_isActive                                                       
00007607  HwiP_Params_init                                                      
00007619  NOROM_RFCHwIntGetAndClear                                             
00007629  PINCC26XX_getPinCount                                                 
00007659  SwiP_Params_init                                                      
00007669  ti_sysbios_family_arm_m3_Hwi_post__E                                  
00007669  ti_sysbios_hal_Hwi_HwiProxy_post__E                                   
00007669  ti_sysbios_hal_Hwi_post__E                                            
00007697  __TI_decompress_none                                                  
000076a5  pthread_attr_setdetachstate                                           
000076b3  ti_sysbios_family_arm_cc26xx_TimestampProvider_get32__E               
000076c1  NOROM_CPUcpsid                                                        
000076cd  NOROM_CPUcpsie                                                        
000076d9  Power_getConstraintMask                                               
000076e5  Power_getDependencyCount                                              
000076f1  RF_powerConstraintGet                                                 
000076fd  _register_lock                                                        
00007709  _register_unlock                                                      
00007715  __TI_zero_init                                                        
00007721  pthread_self                                                          
0000772d  ti_sysbios_knl_Queue_insert__E                                        
00007739  ti_sysbios_knl_Swi_getTrigger__E                                      
00007745  ClockP_Params_init                                                    
0000774f  UART_read                                                             
00007759  UART_write                                                            
00007763  ti_sysbios_rts_ti_ReentSupport_getTlsAddr__I                          
0000776d  Board_initHook                                                        
00007775  UARTCC26XX_init                                                       
0000778d  xdc_runtime_Text_visitRope__I                                         
00007795  NOROM_CPUdelay                                                        
000077a1  UARTCC26XX_readPolling                                                
000077a7  UARTCC26XX_writePolling                                               
000077ad  pthread_attr_setstacksize                                             
000077b3  ti_sysbios_family_arm_m3_Hwi_setFunc__E                               
000077bd  ClockP_destruct                                                       
000077c1  ClockP_getCpuFreq                                                     
000077c5  ClockP_getTimeout                                                     
000077c9  ClockP_setTimeout                                                     
000077cd  ClockP_start                                                          
000077d1  ClockP_stop                                                           
000077d5  HwiP_destruct                                                         
000077d9  HwiP_disable                                                          
000077dd  HwiP_enableInterrupt                                                  
000077e1  HwiP_post                                                             
000077e5  NOROM_RFCOverrideUpdate                                               
000077e9  RF_defaultConflictPolicy                                              
000077ed  SemaphoreP_destruct                                                   
000077f1  SemaphoreP_post                                                       
000077f5  SwiP_destruct                                                         
000077f9  SwiP_disable                                                          
000077fd  SwiP_getTrigger                                                       
00007801  SwiP_or                                                               
00007805  __aeabi_errno_addr                                                    
00007811  ti_sysbios_knl_Clock_isActive__E                                      
00007815  ti_sysbios_knl_Task_getArg1__E                                        
00007819  ti_sysbios_knl_Task_getEnv__E                                         
0000781d  xdc_runtime_Startup_reset__I                                          
00007821  xdc_runtime_SysCallback_defaultReady                                  
00007f48  ROM_constStruct                                                       
00007f48  xdc_runtime_Error_policy__C                                           
00007f4c  xdc_runtime_IModule_Interface__BASE__C                                
00007f50  xdc_runtime_Startup_lastFxns__C                                       
00007f58  ti_sysbios_knl_Event_Object__DESC__C                                  
00007f78  ti_sysbios_family_arm_m3_Hwi_excHookFuncs__C                          
00007f7c  ti_sysbios_gates_GateMutex_Object__DESC__C                            
00007f9c  xdc_runtime_Startup_execImpl__C                                       
00007fa0  ti_sysbios_gates_GateMutex_Instance_State_sem__O                      
00007fa4  ti_sysbios_heaps_HeapTrack_Module__FXNS__C                            
00007fcc  ti_sysbios_knl_Swi_Object__count__C                                   
00007fd0  ti_sysbios_knl_Idle_funcList__C                                       
00007fd8  xdc_runtime_Text_isLoaded__C                                          
00007fdc  ti_sysbios_knl_Clock_Object__DESC__C                                  
00007ffc  ti_sysbios_knl_Task_Module__id__C                                     
00008000  ti_sysbios_knl_Mailbox_Instance_State_dataQue__O                      
00008004  ti_sysbios_knl_Semaphore_eventSync__C                                 
00008008  ti_sysbios_gates_GateMutex_Module__FXNS__C                            
0000802c  ti_sysbios_knl_Task_Module_State_inactiveQ__O                         
00008030  ti_sysbios_family_arm_m3_Hwi_Module__id__C                            
00008032  ti_sysbios_family_arm_cc26xx_Timer_Module__id__C                      
00008034  ti_sysbios_knl_Mailbox_Object__table__C                               
00008038  ti_sysbios_family_arm_m3_Hwi_Object__table__C                         
0000803c  ti_sysbios_knl_Swi_Object__DESC__C                                    
0000805c  xdc_runtime_Text_charCnt__C                                           
00008060  ti_sysbios_heaps_HeapTrack_A_bufOverflow__C                           
00008064  ti_sysbios_heaps_HeapMem_Object__table__C                             
00008068  ti_sysbios_family_arm_cc26xx_Timer_funcHookCH1__C                     
0000806c  xdc_runtime_Error_policyFxn__C                                        
00008070  ti_sysbios_family_arm_m3_Hwi_E_reserved__C                            
00008074  ti_sysbios_heaps_HeapTrack_A_notEmpty__C                              
00008078  xdc_runtime_Startup_firstFxns__C                                      
00008080  xdc_runtime_Text_charTab__C                                           
00008084  ti_sysbios_family_arm_m3_TaskSupport_stackAlignment__C                
00008088  ti_sysbios_family_arm_m3_Hwi_NUM_INTERRUPTS__C                        
0000808c  ti_sysbios_knl_Clock_triggerClock__C                                  
00008090  ti_sysbios_knl_Swi_Object__table__C                                   
00008094  xdc_runtime_Memory_Module__id__C                                      
00008096  ti_sysbios_knl_Swi_Module__id__C                                      
00008098  xdc_runtime_SysCallback_flushFxn__C                                   
0000809c  ti_sysbios_heaps_HeapMem_Module__gateObj__C                           
000080a0  ti_sysbios_family_arm_cc26xx_Timer_startupNeeded__C                   
000080a4  ti_sysbios_family_arm_m3_Hwi_E_noIsr__C                               
000080a8  ti_sysbios_knl_Queue_Object__DESC__C                                  
000080c8  ti_sysbios_family_arm_cc26xx_Timer_funcHookCH2__C                     
000080cc  ti_sysbios_family_arm_m3_Hwi_E_NMI__C                                 
000080d0  ti_sysbios_knl_Task_Object__DESC__C                                   
000080f0  xdc_runtime_Assert_E_assertFailed__C                                  
000080f4  ti_sysbios_gates_GateHwi_Module__id__C                                
000080f8  xdc_runtime_IHeap_Interface__BASE__C                                  
000080fc  xdc_runtime_SysCallback_exitFxn__C                                    
00008100  ti_sysbios_heaps_HeapMem_Module__id__C                                
00008104  ti_sysbios_family_arm_m3_Hwi_excHandlerFunc__C                        
00008108  ti_sysbios_heaps_HeapMem_Module__FXNS__C                              
00008130  ti_sysbios_family_arm_m3_Hwi_E_busFault__C                            
00008134  xdc_runtime_System_maxAtexitHandlers__C                               
00008138  ti_sysbios_knl_Queue_Object__count__C                                 
0000813c  xdc_runtime_Text_registryModsLastId__C                                
00008140  ti_sysbios_knl_Task_Object__table__C                                  
00008144  ti_sysbios_knl_Mailbox_Object__DESC__C                                
00008164  ti_sysbios_family_arm_m3_Hwi_nullIsrFunc__C                           
00008168  ti_sysbios_knl_Clock_tickMode__C                                      
0000816a  ti_sysbios_gates_GateMutex_Module__id__C                              
0000816c  ti_sysbios_knl_Swi_numPriorities__C                                   
00008170  ti_sysbios_knl_Task_numConstructedTasks__C                            
00008174  xdc_runtime_Startup_maxPasses__C                                      
00008178  ti_sysbios_knl_Task_initStackFlag__C                                  
0000817c  xdc_runtime_System_abortFxn__C                                        
00008180  ti_sysbios_knl_Mailbox_Instance_State_dataSem__O                      
00008184  ti_sysbios_gates_GateHwi_Module__FXNS__C                              
000081a8  ti_sysbios_hal_Hwi_Object__DESC__C                                    
000081c8  ti_sysbios_family_arm_m3_Hwi_priGroup__C                              
000081cc  xdc_runtime_Error_E_memory__C                                         
000081d0  ti_sysbios_family_arm_m3_Hwi_E_alreadyDefined__C                      
000081d4  ti_sysbios_knl_Mailbox_Instance_State_freeSem__O                      
000081d8  ti_sysbios_knl_Queue_Object__table__C                                 
000081dc  ti_sysbios_knl_Semaphore_eventPost__C                                 
000081e0  xdc_runtime_System_exitFxn__C                                         
000081e4  ti_sysbios_heaps_HeapTrack_A_doubleFree__C                            
000081e8  ti_sysbios_heaps_HeapMem_reqAlign__C                                  
000081ec  xdc_runtime_Startup_sfxnRts__C                                        
000081f0  ti_sysbios_knl_Semaphore_Object__DESC__C                              
00008210  ti_sysbios_gates_GateHwi_Object__DESC__C                              
00008230  xdc_runtime_SysCallback_putchFxn__C                                   
00008234  ti_sysbios_heaps_HeapMem_Object__count__C                             
00008238  ti_sysbios_family_arm_m3_Hwi_numSparseInterrupts__C                   
0000823c  ti_sysbios_knl_Mailbox_maxTypeAlign__C                                
00008240  ti_sysbios_family_arm_cc26xx_TimestampProvider_useClockTimer__C       
00008244  ti_sysbios_knl_Event_Instance_State_pendQ__O                          
00008248  ti_sysbios_knl_Task_allBlockedFunc__C                                 
0000824c  ti_sysbios_family_arm_m3_Hwi_E_hardFault__C                           
00008250  ti_sysbios_knl_Mailbox_Object__count__C                               
00008254  xdc_runtime_Text_nameStatic__C                                        
00008258  ti_sysbios_family_arm_m3_Hwi_E_debugMon__C                            
0000825c  ti_sysbios_family_arm_m3_Hwi_E_svCall__C                              
00008260  ti_sysbios_knl_Clock_Module_State_clockQ__O                           
00008264  xdc_runtime_SysCallback_readyFxn__C                                   
00008268  xdc_runtime_Text_unnamedModsLastId__C                                 
0000826c  ti_sysbios_knl_Task_defaultStackSize__C                               
00008270  xdc_runtime_IGateProvider_Interface__BASE__C                          
00008274  ti_sysbios_family_arm_m3_Hwi_E_hwiLimitExceeded__C                    
00008278  xdc_runtime_Startup_startModsFxn__C                                   
0000827c  ti_sysbios_knl_Semaphore_Instance_State_pendQ__O                      
00008280  xdc_runtime_System_extendFxn__C                                       
00008284  ti_sysbios_family_arm_m3_Hwi_Object__DESC__C                          
000082a4  xdc_runtime_Text_nameEmpty__C                                         
000082a8  ti_sysbios_family_arm_m3_Hwi_Object__count__C                         
000082ac  xdc_runtime_Text_visitRopeFxn__C                                      
000082b0  xdc_runtime_SysCallback_abortFxn__C                                   
000082b4  ti_sysbios_knl_Task_defaultStackHeap__C                               
000082b8  ti_sysbios_family_arm_m3_Hwi_E_usageFault__C                          
000082bc  ti_sysbios_family_arm_m3_Hwi_ccr__C                                   
000082c0  ti_sysbios_heaps_HeapTrack_Module__id__C                              
000082c4  ti_sysbios_heaps_HeapMem_E_memory__C                                  
000082c8  ti_sysbios_family_arm_m3_Hwi_E_memFault__C                            
000082cc  ti_sysbios_knl_Task_Object__count__C                                  
000082d0  ti_sysbios_heaps_HeapMem_Object__DESC__C                              
000082f0  xdc_runtime_Text_nameUnknown__C                                       
000082f4  xdc_runtime_Memory_defaultHeapInstance__C                             
000082f8  ti_sysbios_knl_Mailbox_Instance_State_freeQue__O                      
000082fc  xdc_runtime_Startup_sfxnTab__C                                        
00008300  xdc_runtime_Error_policy__C_offset                                    
00008304  xdc_runtime_IModule_Interface__BASE__C_offset                         
00008308  xdc_runtime_Startup_lastFxns__C_offset                                
0000830c  ti_sysbios_knl_Event_Object__DESC__C_offset                           
00008310  ti_sysbios_family_arm_m3_Hwi_excHookFuncs__C_offset                   
00008314  ti_sysbios_gates_GateMutex_Object__DESC__C_offset                     
00008318  xdc_runtime_Startup_execImpl__C_offset                                
0000831c  ti_sysbios_gates_GateMutex_Instance_State_sem__O_offset               
00008320  ti_sysbios_heaps_HeapTrack_Module__FXNS__C_offset                     
00008324  ti_sysbios_knl_Swi_Object__count__C_offset                            
00008328  ti_sysbios_knl_Idle_funcList__C_offset                                
0000832c  xdc_runtime_Text_isLoaded__C_offset                                   
00008330  ti_sysbios_knl_Clock_Object__DESC__C_offset                           
00008334  ti_sysbios_knl_Task_Module__id__C_offset                              
00008338  ti_sysbios_knl_Mailbox_Instance_State_dataQue__O_offset               
0000833c  ti_sysbios_knl_Semaphore_eventSync__C_offset                          
00008340  ti_sysbios_gates_GateMutex_Module__FXNS__C_offset                     
00008344  ti_sysbios_knl_Task_Module_State_inactiveQ__O_offset                  
00008348  ti_sysbios_family_arm_m3_Hwi_Module__id__C_offset                     
0000834c  ti_sysbios_family_arm_cc26xx_Timer_Module__id__C_offset               
00008350  ti_sysbios_knl_Mailbox_Object__table__C_offset                        
00008354  ti_sysbios_family_arm_m3_Hwi_Object__table__C_offset                  
00008358  ti_sysbios_knl_Swi_Object__DESC__C_offset                             
0000835c  xdc_runtime_Text_charCnt__C_offset                                    
00008360  ti_sysbios_heaps_HeapTrack_A_bufOverflow__C_offset                    
00008364  ti_sysbios_heaps_HeapMem_Object__table__C_offset                      
00008368  ti_sysbios_family_arm_cc26xx_Timer_funcHookCH1__C_offset              
0000836c  xdc_runtime_Error_policyFxn__C_offset                                 
00008370  ti_sysbios_family_arm_m3_Hwi_E_reserved__C_offset                     
00008374  ti_sysbios_heaps_HeapTrack_A_notEmpty__C_offset                       
00008378  xdc_runtime_Startup_firstFxns__C_offset                               
0000837c  xdc_runtime_Text_charTab__C_offset                                    
00008380  ti_sysbios_family_arm_m3_TaskSupport_stackAlignment__C_offset         
00008384  ti_sysbios_family_arm_m3_Hwi_NUM_INTERRUPTS__C_offset                 
00008388  ti_sysbios_knl_Clock_triggerClock__C_offset                           
0000838c  ti_sysbios_knl_Swi_Object__table__C_offset                            
00008390  xdc_runtime_Memory_Module__id__C_offset                               
00008394  ti_sysbios_knl_Swi_Module__id__C_offset                               
00008398  xdc_runtime_SysCallback_flushFxn__C_offset                            
0000839c  ti_sysbios_heaps_HeapMem_Module__gateObj__C_offset                    
000083a0  ti_sysbios_family_arm_cc26xx_Timer_startupNeeded__C_offset            
000083a4  ti_sysbios_family_arm_m3_Hwi_E_noIsr__C_offset                        
000083a8  ti_sysbios_knl_Queue_Object__DESC__C_offset                           
000083ac  ti_sysbios_family_arm_cc26xx_Timer_funcHookCH2__C_offset              
000083b0  ti_sysbios_family_arm_m3_Hwi_E_NMI__C_offset                          
000083b4  ti_sysbios_knl_Task_Object__DESC__C_offset                            
000083b8  xdc_runtime_Assert_E_assertFailed__C_offset                           
000083bc  ti_sysbios_gates_GateHwi_Module__id__C_offset                         
000083c0  xdc_runtime_IHeap_Interface__BASE__C_offset                           
000083c4  xdc_runtime_SysCallback_exitFxn__C_offset                             
000083c8  ti_sysbios_heaps_HeapMem_Module__id__C_offset                         
000083cc  ti_sysbios_family_arm_m3_Hwi_excHandlerFunc__C_offset                 
000083d0  ti_sysbios_heaps_HeapMem_Module__FXNS__C_offset                       
000083d4  ti_sysbios_family_arm_m3_Hwi_E_busFault__C_offset                     
000083d8  xdc_runtime_System_maxAtexitHandlers__C_offset                        
000083dc  ti_sysbios_knl_Queue_Object__count__C_offset                          
000083e0  xdc_runtime_Text_registryModsLastId__C_offset                         
000083e4  ti_sysbios_knl_Task_Object__table__C_offset                           
000083e8  ti_sysbios_knl_Mailbox_Object__DESC__C_offset                         
000083ec  ti_sysbios_family_arm_m3_Hwi_nullIsrFunc__C_offset                    
000083f0  ti_sysbios_knl_Clock_tickMode__C_offset                               
000083f4  ti_sysbios_gates_GateMutex_Module__id__C_offset                       
000083f8  ti_sysbios_knl_Swi_numPriorities__C_offset                            
000083fc  ti_sysbios_knl_Task_numConstructedTasks__C_offset                     
00008400  xdc_runtime_Startup_maxPasses__C_offset                               
00008404  ti_sysbios_knl_Task_initStackFlag__C_offset                           
00008408  xdc_runtime_System_abortFxn__C_offset                                 
0000840c  ti_sysbios_knl_Mailbox_Instance_State_dataSem__O_offset               
00008410  ti_sysbios_gates_GateHwi_Module__FXNS__C_offset                       
00008414  ti_sysbios_hal_Hwi_Object__DESC__C_offset                             
00008418  ti_sysbios_family_arm_m3_Hwi_priGroup__C_offset                       
0000841c  xdc_runtime_Error_E_memory__C_offset                                  
00008420  ti_sysbios_family_arm_m3_Hwi_E_alreadyDefined__C_offset               
00008424  ti_sysbios_knl_Mailbox_Instance_State_freeSem__O_offset               
00008428  ti_sysbios_knl_Queue_Object__table__C_offset                          
0000842c  ti_sysbios_knl_Semaphore_eventPost__C_offset                          
00008430  xdc_runtime_System_exitFxn__C_offset                                  
00008434  ti_sysbios_heaps_HeapTrack_A_doubleFree__C_offset                     
00008438  ti_sysbios_heaps_HeapMem_reqAlign__C_offset                           
0000843c  xdc_runtime_Startup_sfxnRts__C_offset                                 
00008440  ti_sysbios_knl_Semaphore_Object__DESC__C_offset                       
00008444  ti_sysbios_gates_GateHwi_Object__DESC__C_offset                       
00008448  xdc_runtime_SysCallback_putchFxn__C_offset                            
0000844c  ti_sysbios_heaps_HeapMem_Object__count__C_offset                      
00008450  ti_sysbios_family_arm_m3_Hwi_numSparseInterrupts__C_offset            
00008454  ti_sysbios_knl_Mailbox_maxTypeAlign__C_offset                         
00008458  ti_sysbios_family_arm_cc26xx_TimestampProvider_useClockTimer__C_offset
0000845c  ti_sysbios_knl_Event_Instance_State_pendQ__O_offset                   
00008460  ti_sysbios_knl_Task_allBlockedFunc__C_offset                          
00008464  ti_sysbios_family_arm_m3_Hwi_E_hardFault__C_offset                    
00008468  ti_sysbios_knl_Mailbox_Object__count__C_offset                        
0000846c  xdc_runtime_Text_nameStatic__C_offset                                 
00008470  ti_sysbios_family_arm_m3_Hwi_E_debugMon__C_offset                     
00008474  ti_sysbios_family_arm_m3_Hwi_E_svCall__C_offset                       
00008478  ti_sysbios_knl_Clock_Module_State_clockQ__O_offset                    
0000847c  xdc_runtime_SysCallback_readyFxn__C_offset                            
00008480  xdc_runtime_Text_unnamedModsLastId__C_offset                          
00008484  ti_sysbios_knl_Task_defaultStackSize__C_offset                        
00008488  xdc_runtime_IGateProvider_Interface__BASE__C_offset                   
0000848c  ti_sysbios_family_arm_m3_Hwi_E_hwiLimitExceeded__C_offset             
00008490  xdc_runtime_Startup_startModsFxn__C_offset                            
00008494  ti_sysbios_knl_Semaphore_Instance_State_pendQ__O_offset               
00008498  xdc_runtime_System_extendFxn__C_offset                                
0000849c  ti_sysbios_family_arm_m3_Hwi_Object__DESC__C_offset                   
000084a0  xdc_runtime_Text_nameEmpty__C_offset                                  
000084a4  ti_sysbios_family_arm_m3_Hwi_Object__count__C_offset                  
000084a8  xdc_runtime_Text_visitRopeFxn__C_offset                               
000084ac  xdc_runtime_SysCallback_abortFxn__C_offset                            
000084b0  ti_sysbios_knl_Task_defaultStackHeap__C_offset                        
000084b4  ti_sysbios_family_arm_m3_Hwi_E_usageFault__C_offset                   
000084b8  ti_sysbios_family_arm_m3_Hwi_ccr__C_offset                            
000084bc  ti_sysbios_heaps_HeapTrack_Module__id__C_offset                       
000084c0  ti_sysbios_heaps_HeapMem_E_memory__C_offset                           
000084c4  ti_sysbios_family_arm_m3_Hwi_E_memFault__C_offset                     
000084c8  ti_sysbios_knl_Task_Object__count__C_offset                           
000084cc  ti_sysbios_heaps_HeapMem_Object__DESC__C_offset                       
000084d0  xdc_runtime_Text_nameUnknown__C_offset                                
000084d4  xdc_runtime_Memory_defaultHeapInstance__C_offset                      
000084d8  ti_sysbios_knl_Mailbox_Instance_State_freeQue__O_offset               
000084dc  xdc_runtime_Startup_sfxnTab__C_offset                                 
000084e0  ti_sysbios_knl_Clock_Module__state__V_offset                          
000084e4  ti_sysbios_family_arm_cc26xx_TimestampProvider_Module__state__V_offset
000084e8  xdc_runtime_Startup_Module__state__V_offset                           
000084ec  xdc_runtime_Registry_Module__state__V_offset                          
000084f0  ti_sysbios_BIOS_Module__state__V_offset                               
000084f4  ti_sysbios_knl_Swi_Module__state__V_offset                            
000084f8  ti_sysbios_knl_Task_Module__state__V_offset                           
000084fc  xdc_runtime_Memory_Module__state__V_offset                            
00008500  xdc_runtime_System_Module__state__V_offset                            
00008504  ti_sysbios_family_arm_m3_Hwi_Module__state__V_offset                  
00008508  ti_sysbios_family_arm_cc26xx_Timer_Module__state__V_offset            
0000850c  heap                                                                  
00008510  tiposix_mqGate                                                        
000085a4  resourceDB                                                            
00008640  ROM_externFuncPtrs                                                    
00008688  UARTCC26XX_fxnTable                                                   
000086d8  UART_defaultParams                                                    
000086fc  xdc_runtime_Startup_sfxnTab__A                                        
00008720  BoardGpioInitTable                                                    
00008776  xdc_runtime_Main_Module__id__C                                        
0000878c  PowerCC26X2_config                                                    
000087b4  xdc_runtime_Startup_sfxnRts__A                                        
000087c6  UART_count                                                            
000087c7  EasyLink_numSupportedPhys                                             
000087f8  RFCC26XX_hwAttrs                                                      
00008804  UART_config                                                           
00008810  xdc_runtime_Startup_firstFxns__A                                      
0000882c  PINCC26XX_hwAttrs                                                     
00008834  RFCC26XX_schedulerPolicy                                              
00008844  ti_sysbios_family_arm_m3_Hwi_excHookFuncs__A                          
0000884c  ti_sysbios_knl_Idle_funcList__A                                       
0000886c  ti_sysbios_family_arm_m3_Hwi_E_exception__C                           
00008870  ti_sysbios_heaps_HeapMem_primaryHeapBaseAddr__C                       
00008874  ti_sysbios_heaps_HeapMem_primaryHeapEndAddr__C                        
00008878  ti_sysbios_knl_Clock_tickPeriod__C                                    
0000887c  ti_sysbios_knl_Task_Object__heap__C                                   
00008880  xdc_runtime_Main_Module__diagsEnabled__C                              
00008884  xdc_runtime_Main_Module__diagsIncluded__C                             
00008888  xdc_runtime_Main_Module__diagsMask__C                                 
0000888c  xdc_runtime_Text_charTab__A                                           
00008b48  __TI_Handler_Table_Base                                               
00008b54  __TI_Handler_Table_Limit                                              
00008b78  __TI_CINIT_Base                                                       
00008ba0  __TI_CINIT_Limit                                                      
00057fa8  __ccfg                                                                
1002b400  ti_sysbios_rom_cortexm_cc26xx_cc26x2v2_CC26xx_REVISION__C             
1002b405  ti_sysbios_family_arm_m3_Hwi_excDumpRegs__I                           
1002b82d  ti_sysbios_family_arm_m3_Hwi_excBusFault__I                           
1002b9a1  ti_sysbios_family_arm_m3_Hwi_excUsageFault__I                         
1002bb01  ti_sysbios_heaps_HeapTrack_free__E                                    
1002bc61  ti_sysbios_family_arm_m3_Hwi_excMemFault__I                           
1002bda9  ti_sysbios_family_arm_m3_Hwi_excFillContext__I                        
1002beb5  ti_sysbios_family_arm_m3_Hwi_excHandlerMax__I                         
1002bfb1  ti_sysbios_knl_Semaphore_pend__E                                      
1002c0a5  ti_sysbios_knl_Event_pend__E                                          
1002c185  ti_sysbios_family_arm_m3_Hwi_excHardFault__I                          
1002c251  ti_sysbios_knl_Task_Instance_init__E                                  
1002c31d  ti_sysbios_family_arm_m3_Hwi_excDebugMon__I                           
1002c3d9  ti_sysbios_family_arm_m3_Hwi_postInit__I                              
1002c48d  ti_sysbios_knl_Mailbox_Instance_init__E                               
1002c53d  ti_sysbios_knl_Clock_workFuncDynamic__E                               
1002c5d9  ti_sysbios_heaps_HeapTrack_Instance_finalize__E                       
1002c671  ti_sysbios_knl_Task_Instance_finalize__E                              
1002c709  ti_sysbios_family_arm_cc26xx_Timer_periodicStub__E                    
1002c79d  ti_sysbios_family_arm_m3_Hwi_Instance_init__E                         
1002c831  ti_sysbios_family_arm_m3_Hwi_initNVIC__E                              
1002c8c1  ti_sysbios_heaps_HeapTrack_alloc__E                                   
1002c94d  ti_sysbios_knl_Clock_startI__E                                        
1002c9d5  ti_sysbios_knl_Swi_restoreHwi__E                                      
1002ca59  ti_sysbios_knl_Task_postInit__I                                       
1002cad9  ti_sysbios_knl_Clock_workFunc__E                                      
1002cb51  ti_sysbios_heaps_HeapMem_allocUnprotected__E                          
1002cbc5  ti_sysbios_knl_Clock_walkQueueDynamic__E                              
1002cc39  ti_sysbios_knl_Task_schedule__I                                       
1002ccad  ti_sysbios_knl_Task_startCore__E                                      
1002cd21  ti_sysbios_knl_Semaphore_post__E                                      
1002cd91  ti_sysbios_knl_Swi_run__I                                             
1002ce01  ti_sysbios_knl_Task_sleep__E                                          
1002ce71  ti_sysbios_family_arm_m3_Hwi_Instance_finalize__E                     
1002cedd  ti_sysbios_family_arm_m3_Hwi_dispatchC__I                             
1002cf49  ti_sysbios_knl_Mailbox_post__E                                        
1002cfb3  ti_sysbios_knl_Event_post__E                                          
1002d01b  ti_sysbios_BIOS_linkedWithIncorrectBootLibrary__E                     
1002d01d  ti_sysbios_knl_Semaphore_Instance_init__E                             
1002d081  ti_sysbios_knl_Swi_runLoop__I                                         
1002d0e1  ti_sysbios_knl_Swi_schedule__I                                        
1002d141  ti_sysbios_knl_Task_Module_startup__E                                 
1002d1a1  ti_sysbios_family_arm_m3_Hwi_create                                   
1002d1fd  ti_sysbios_hal_Hwi_create                                             
1002d259  ti_sysbios_heaps_HeapMem_alloc__E                                     
1002d2b5  ti_sysbios_knl_Mailbox_Instance_finalize__E                           
1002d311  ti_sysbios_knl_Mailbox_create                                         
1002d36d  ti_sysbios_knl_Swi_Instance_init__E                                   
1002d3c9  ti_sysbios_family_arm_m3_Hwi_Module_startup__E                        
1002d421  ti_sysbios_family_arm_m3_Hwi_construct                                
1002d479  ti_sysbios_heaps_HeapMem_freeUnprotected__E                           
1002d4d1  ti_sysbios_knl_Mailbox_construct                                      
1002d529  ti_sysbios_knl_Task_create                                            
1002d581  ti_sysbios_knl_Mailbox_pend__E                                        
1002d5d7  ti_sysbios_gates_GateHwi_Instance_init__E                             
1002d5d9  ti_sysbios_knl_Task_construct                                         
1002d62d  ti_sysbios_family_arm_m3_Hwi_excReserved__I                           
1002d67d  ti_sysbios_knl_Task_allBlockedFunction__I                             
1002d6cd  ti_sysbios_heaps_HeapMem_getStats__E                                  
1002d719  ti_sysbios_knl_Swi_construct                                          
1002d765  ti_sysbios_knl_Swi_create                                             
1002d7b1  ti_sysbios_knl_Task_blockI__E                                         
1002d7fd  ti_sysbios_knl_Task_yield__E                                          
1002d849  ti_sysbios_heaps_HeapMem_Instance_init__E                             
1002d891  ti_sysbios_knl_Swi_post__E                                            
1002d8d9  ti_sysbios_family_arm_m3_Hwi_disableInterrupt__E                      
1002d8d9  ti_sysbios_hal_Hwi_HwiProxy_disableInterrupt__E                       
1002d8d9  ti_sysbios_hal_Hwi_HwiProxy_disableInterrupt__E                       
1002d8d9  ti_sysbios_hal_Hwi_disableInterrupt__E                                
1002d8d9  ti_sysbios_hal_Hwi_disableInterrupt__E                                
1002d91d  ti_sysbios_family_arm_m3_Hwi_enableInterrupt__E                       
1002d91d  ti_sysbios_hal_Hwi_HwiProxy_enableInterrupt__E                        
1002d91d  ti_sysbios_hal_Hwi_HwiProxy_enableInterrupt__E                        
1002d91d  ti_sysbios_hal_Hwi_enableInterrupt__E                                 
1002d91d  ti_sysbios_hal_Hwi_enableInterrupt__E                                 
1002d961  ti_sysbios_family_arm_m3_Hwi_excNoIsr__I                              
1002d9a5  ti_sysbios_family_arm_m3_Hwi_excSvCall__I                             
1002d9e9  ti_sysbios_family_arm_m3_Hwi_getStackInfo__E                          
1002d9e9  ti_sysbios_hal_Hwi_HwiProxy_getStackInfo__E                           
1002d9e9  ti_sysbios_hal_Hwi_HwiProxy_getStackInfo__E                           
1002d9e9  ti_sysbios_hal_Hwi_getStackInfo__E                                    
1002d9e9  ti_sysbios_hal_Hwi_getStackInfo__E                                    
1002da2d  ti_sysbios_knl_Mailbox_Module_startup__E                              
1002da71  ti_sysbios_family_arm_m3_Hwi_excNmi__I                                
1002daad  ti_sysbios_family_arm_m3_Hwi_getHandle__E                             
1002dae9  ti_sysbios_family_arm_m3_TaskSupport_start__E                         
1002dae9  ti_sysbios_knl_Task_SupportProxy_start__E                             
1002dae9  ti_sysbios_knl_Task_SupportProxy_start__E                             
1002db25  ti_sysbios_knl_Clock_create                                           
1002db61  SwiP_restore                                                          
1002db61  ti_sysbios_knl_Swi_restore__E                                         
1002db9d  ti_sysbios_knl_Task_exit__E                                           
1002dbd7  ti_sysbios_knl_Clock_logTick__E                                       
1002dbd9  ti_sysbios_heaps_HeapMem_free__E                                      
1002dc11  ClockP_getSystemTicks                                                 
1002dc11  ti_sysbios_knl_Clock_getTicks__E                                      
1002dc49  ti_sysbios_knl_Semaphore_create                                       
1002dc81  ti_sysbios_knl_Task_processVitalTaskFlag__I                           
1002dcb9  ti_sysbios_knl_Task_unblockI__E                                       
1002dcf1  ti_sysbios_family_arm_cc26xx_Timer_startup__E                         
1002dcf1  ti_sysbios_knl_Clock_TimerProxy_startup__E                            
1002dcf1  ti_sysbios_knl_Clock_TimerProxy_startup__E                            
1002dd25  ti_sysbios_heaps_HeapMem_init__I                                      
1002dd59  ti_sysbios_knl_Clock_Instance_init__E                                 
1002dd8d  ti_sysbios_knl_Clock_construct                                        
1002ddc1  ti_sysbios_knl_Semaphore_construct                                    
1002ddf5  ti_sysbios_family_arm_m3_Hwi_excHandler__I                            
1002de25  ti_sysbios_gates_GateMutex_Object__create__S                          
1002de55  ti_sysbios_gates_GateMutex_create                                     
1002de85  ti_sysbios_heaps_HeapMem_Object__create__S                            
1002deb5  ti_sysbios_knl_Event_create                                           
1002dee5  ti_sysbios_knl_Queue_construct                                        
1002df15  ti_sysbios_knl_Queue_create                                           
1002df45  ti_sysbios_knl_Task_restore__E                                        
1002df75  ti_sysbios_hal_Hwi_initStack                                          
1002dfa3  ti_sysbios_knl_Clock_triggerFunc__I                                   
1002dfa5  ti_sysbios_family_arm_cc26xx_Timer_Module_startup__E                  
1002dfd1  ti_sysbios_family_arm_cc26xx_Timer_postInit__I                        
1002dffd  ti_sysbios_family_arm_cc26xx_TimestampProvider_get64__E               
1002dffd  xdc_runtime_Timestamp_SupportProxy_get64__E                           
1002dffd  xdc_runtime_Timestamp_SupportProxy_get64__E                           
1002dffd  xdc_runtime_Timestamp_get64__E                                        
1002dffd  xdc_runtime_Timestamp_get64__E                                        
1002e029  ti_sysbios_gates_GateHwi_Object__create__S                            
1002e055  ti_sysbios_gates_GateMutex_construct                                  
1002e081  ti_sysbios_heaps_HeapTrack_Object__create__S                          
1002e0ad  ti_sysbios_heaps_HeapTrack_create                                     
1002e0d9  ti_sysbios_knl_Event_construct                                        
1002e105  ti_sysbios_knl_Event_pendTimeout__I                                   
1002e131  ti_sysbios_knl_Semaphore_pendTimeout__I                               
1002e15d  ti_sysbios_family_arm_cc26xx_Timer_Module__startupDone__S             
1002e15d  ti_sysbios_knl_Clock_TimerProxy_Module__startupDone__S                
1002e185  ti_sysbios_family_arm_m3_Hwi_Module__startupDone__S                   
1002e185  ti_sysbios_hal_Hwi_HwiProxy_Module__startupDone__S                    
1002e1ad  ti_sysbios_family_arm_m3_Hwi_Object__delete__S                        
1002e1d5  ti_sysbios_family_arm_m3_Hwi_Object__get__S                           
1002e1fd  ti_sysbios_gates_GateMutex_Object__delete__S                          
1002e225  ti_sysbios_gates_GateMutex_enter__E                                   
1002e24d  ti_sysbios_hal_Hwi_Object__delete__S                                  
1002e275  ti_sysbios_heaps_HeapMem_Object__get__S                               
1002e29d  ti_sysbios_knl_Clock_Object__delete__S                                
1002e2c5  ti_sysbios_knl_Clock_stop__E                                          
1002e2ed  ti_sysbios_knl_Idle_run__E                                            
1002e315  ti_sysbios_knl_Mailbox_Object__delete__S                              
1002e33d  ti_sysbios_knl_Mailbox_Object__get__S                                 
1002e365  ti_sysbios_knl_Semaphore_Object__delete__S                            
1002e38d  ti_sysbios_knl_Swi_Object__get__S                                     
1002e3b5  ti_sysbios_knl_Task_Object__delete__S                                 
1002e3dd  ti_sysbios_knl_Task_restoreHwi__E                                     
1002e405  ti_sysbios_knl_Mailbox_postInit__I                                    
1002e42b  ti_sysbios_knl_Swi_Instance_finalize__E                               
1002e42d  ti_sysbios_family_arm_cc26xx_TimestampProvider_Module_startup__E      
1002e451  ti_sysbios_family_arm_m3_Hwi_Handle__label__S                         
1002e451  ti_sysbios_hal_Hwi_HwiProxy_Handle__label__S                          
1002e475  ti_sysbios_family_arm_m3_Hwi_destruct                                 
1002e499  ti_sysbios_gates_GateHwi_Handle__label__S                             
1002e499  xdc_runtime_Main_Module_GateProxy_Handle__label__S                    
1002e499  xdc_runtime_System_Module_GateProxy_Handle__label__S                  
1002e4bd  ti_sysbios_gates_GateHwi_Object__delete__S                            
1002e4e1  ti_sysbios_BIOS_RtsGateProxy_Handle__label__S                         
1002e4e1  ti_sysbios_gates_GateMutex_Handle__label__S                           
1002e4e1  ti_sysbios_heaps_HeapMem_Module_GateProxy_Handle__label__S            
1002e505  ti_sysbios_gates_GateMutex_destruct                                   
1002e529  ti_sysbios_heaps_HeapMem_Handle__label__S                             
1002e529  xdc_runtime_Memory_HeapProxy_Handle__label__S                         
1002e54d  ti_sysbios_heaps_HeapMem_Object__delete__S                            
1002e571  ti_sysbios_heaps_HeapTrack_Handle__label__S                           
1002e595  ti_sysbios_heaps_HeapTrack_Instance_init__E                           
1002e5b9  ti_sysbios_heaps_HeapTrack_Object__delete__S                          
1002e5dd  ti_sysbios_heaps_HeapTrack_getStats__E                                
1002e601  ti_sysbios_knl_Clock_Module_startup__E                                
1002e625  ti_sysbios_knl_Clock_addI__E                                          
1002e649  ti_sysbios_knl_Clock_destruct                                         
1002e66d  ti_sysbios_knl_Event_Object__delete__S                                
1002e691  ti_sysbios_knl_Mailbox_destruct                                       
1002e6b5  ti_sysbios_knl_Queue_Object__delete__S                                
1002e6d9  ti_sysbios_knl_Semaphore_Instance_finalize__E                         
1002e6fd  ti_sysbios_knl_Semaphore_destruct                                     
1002e721  ti_sysbios_knl_Swi_Handle__label__S                                   
1002e745  ti_sysbios_knl_Swi_Module_startup__E                                  
1002e769  ti_sysbios_knl_Swi_Object__delete__S                                  
1002e78d  ti_sysbios_knl_Task_Handle__label__S                                  
1002e7b1  ti_sysbios_knl_Task_Object__get__S                                    
1002e7d5  ti_sysbios_knl_Task_destruct                                          
1002e7f9  ti_sysbios_knl_Task_enter__I                                          
1002e81d  ti_sysbios_knl_Clock_scheduleNextTick__E                              
1002e83d  ti_sysbios_knl_Event_checkEvents__I                                   
1002e85d  ti_sysbios_knl_Event_destruct                                         
1002e87d  ti_sysbios_knl_Queue_Object__get__S                                   
1002e89d  ti_sysbios_knl_Queue_destruct                                         
1002e8bd  ti_sysbios_knl_Swi_destruct                                           
1002e8dd  ti_sysbios_hal_Hwi_Instance_init__E                                   
1002e8fd  ti_sysbios_family_arm_m3_Hwi_plug__E                                  
1002e919  ti_sysbios_family_arm_m3_Hwi_setPriority__E                           
1002e935  ti_sysbios_family_arm_m3_Hwi_switchFromBootStack__E                   
1002e935  ti_sysbios_hal_Hwi_HwiProxy_switchFromBootStack__E                    
1002e935  ti_sysbios_hal_Hwi_HwiProxy_switchFromBootStack__E                    
1002e935  ti_sysbios_hal_Hwi_switchFromBootStack__E                             
1002e935  ti_sysbios_hal_Hwi_switchFromBootStack__E                             
1002e951  ti_sysbios_knl_Queue_get__E                                           
1002e96d  ti_sysbios_knl_Queue_put__E                                           
1002e989  ti_sysbios_knl_Task_sleepTimeout__I                                   
1002e9a3  ti_sysbios_knl_Task_unblock__E                                        
1002e9bb  ti_sysbios_gates_GateMutex_Instance_init__E                           
1002e9d1  ti_sysbios_knl_Clock_Instance_finalize__E                             
1002e9e7  ti_sysbios_knl_Clock_start__E                                         
1002e9fd  ti_sysbios_BIOS_getCpuFreq__E                                         
1002ea11  ti_sysbios_BIOS_setThreadType__E                                      
1002ea25  ti_sysbios_knl_Swi_disable__E                                         
1002ea39  ti_sysbios_knl_Swi_enabled__E                                         
1002ea4d  ti_sysbios_knl_Task_disable__E                                        
1002ea61  ti_sysbios_hal_Hwi_Module_startup__E                                  
1002ea73  ti_sysbios_knl_Event_sync__E                                          
1002ea85  ti_sysbios_BIOS_exit__E                                               
1002ea95  ti_sysbios_BIOS_getThreadType__E                                      
1002eaa5  ti_sysbios_BIOS_start__E                                              
1002eab5  ti_sysbios_family_arm_m3_TaskSupport_getStackAlignment__E             
1002eab5  ti_sysbios_knl_Task_SupportProxy_getStackAlignment__E                 
1002eab5  ti_sysbios_knl_Task_SupportProxy_getStackAlignment__E                 
1002eac5  ti_sysbios_knl_Clock_TimerProxy_getCurrentTick__E                     
1002ead5  ti_sysbios_knl_Clock_TimerProxy_getMaxTicks__E                        
1002eae5  ti_sysbios_knl_Clock_TimerProxy_setNextTick__E                        
1002eaf5  ti_sysbios_knl_Task_self__E                                           
1002eb05  ti_sysbios_gates_GateMutex_leave__E                                   
1002eb13  ti_sysbios_heaps_HeapMem_restore__E                                   
1002eb21  ti_sysbios_knl_Queue_empty__E                                         
1002eb2f  ti_sysbios_knl_Queue_remove__E                                        
1002eb3d  ti_sysbios_family_arm_cc26xx_TimestampProvider_getFreq__E             
1002eb3d  xdc_runtime_Timestamp_SupportProxy_getFreq__E                         
1002eb3d  xdc_runtime_Timestamp_SupportProxy_getFreq__E                         
1002eb3d  xdc_runtime_Timestamp_getFreq__E                                      
1002eb3d  xdc_runtime_Timestamp_getFreq__E                                      
1002eb49  ti_sysbios_family_arm_m3_Hwi_Params__init__S                          
1002eb49  ti_sysbios_hal_Hwi_HwiProxy_Params__init__S                           
1002eb55  ti_sysbios_family_arm_m3_Hwi_disableFxn__E                            
1002eb61  ti_sysbios_family_arm_m3_Hwi_enableFxn__E                             
1002eb6d  ti_sysbios_gates_GateHwi_enter__E                                     
1002eb79  ti_sysbios_BIOS_RtsGateProxy_Params__init__S                          
1002eb79  ti_sysbios_gates_GateMutex_Params__init__S                            
1002eb79  ti_sysbios_heaps_HeapMem_Module_GateProxy_Params__init__S             
1002eb85  ti_sysbios_heaps_HeapTrack_Params__init__S                            
1002eb91  ti_sysbios_heaps_HeapTrack_isBlocking__E                              
1002eb9d  ti_sysbios_knl_Clock_Params__init__S                                  
1002eba9  ti_sysbios_knl_Clock_getTimerHandle__E                                
1002ebb5  ti_sysbios_knl_Event_Params__init__S                                  
1002ebc1  ti_sysbios_knl_Mailbox_Params__init__S                                
1002ebcd  ti_sysbios_knl_Queue_dequeue__E                                       
1002ebd9  ti_sysbios_knl_Queue_enqueue__E                                       
1002ebe5  ti_sysbios_knl_Semaphore_Params__init__S                              
1002ebf1  ti_sysbios_knl_Swi_Params__init__S                                    
1002ebfd  ti_sysbios_knl_Swi_self__E                                            
1002ec09  ti_sysbios_knl_Task_Params__init__S                                   
1002ec15  ti_sysbios_hal_Hwi_Instance_finalize__E                               
1002ec1f  ti_sysbios_knl_Event_Instance_init__E                                 
1002ec29  ti_sysbios_family_arm_m3_Hwi_doSwiRestore__I                          
1002ec31  ti_sysbios_family_arm_m3_Hwi_startup__E                               
1002ec31  ti_sysbios_hal_Hwi_HwiProxy_startup__E                                
1002ec31  ti_sysbios_hal_Hwi_HwiProxy_startup__E                                
1002ec31  ti_sysbios_hal_Hwi_startup__E                                         
1002ec31  ti_sysbios_hal_Hwi_startup__E                                         
1002ec39  ti_sysbios_knl_Idle_loop__E                                           
1002ec41  ti_sysbios_family_arm_m3_Hwi_doTaskRestore__I                         
1002ec47  HwiP_restore                                                          
1002ec47  ti_sysbios_family_arm_m3_Hwi_restoreFxn__E                            
1002ec4d  ti_sysbios_gates_GateHwi_leave__E                                     
1002ec53  ti_sysbios_gates_GateMutex_Instance_finalize__E                       
1002ec59  ti_sysbios_heaps_HeapMem_isBlocking__E                                
1002ec5f  ti_sysbios_knl_Queue_Instance_init__E                                 
1002ec65  ti_sysbios_knl_Queue_elemClear__E                                     
1002ec6b  ti_sysbios_knl_Swi_startup__E                                         
1002ec71  ti_sysbios_knl_Task_enable__E                                         
1002ec77  ti_sysbios_BIOS_RtsGateProxy_enter__E                                 
1002ec7b  ti_sysbios_BIOS_RtsGateProxy_leave__E                                 
1002ec7f  ti_sysbios_family_arm_cc26xx_Timer_getExpiredTicks__E                 
1002ec83  ti_sysbios_family_arm_cc26xx_Timer_getPeriod__E                       
1002ec87  ti_sysbios_family_arm_cc26xx_Timer_setPeriod__E                       
1002ec8b  ti_sysbios_family_arm_m3_Hwi_delete                                   
1002ec8f  ti_sysbios_family_arm_m3_TaskSupport_Module__startupDone__S           
1002ec8f  ti_sysbios_knl_Task_SupportProxy_Module__startupDone__S               
1002ec93  ti_sysbios_gates_GateHwi_query__E                                     
1002ec93  xdc_runtime_Main_Module_GateProxy_query__E                            
1002ec93  xdc_runtime_System_Module_GateProxy_query__E                          
1002ec93  xdc_runtime_System_Module_GateProxy_query__E                          
1002ec97  ti_sysbios_gates_GateMutex_delete                                     
1002ec9b  ti_sysbios_BIOS_RtsGateProxy_query__E                                 
1002ec9b  ti_sysbios_BIOS_RtsGateProxy_query__E                                 
1002ec9b  ti_sysbios_gates_GateMutex_query__E                                   
1002ec9b  ti_sysbios_heaps_HeapMem_Module_GateProxy_query__E                    
1002ec9b  ti_sysbios_heaps_HeapMem_Module_GateProxy_query__E                    
1002ec9f  ti_sysbios_hal_Hwi_HwiProxy_create                                    
1002eca3  ti_sysbios_hal_Hwi_HwiProxy_delete                                    
1002eca7  ti_sysbios_hal_Hwi_delete                                             
1002ecab  ti_sysbios_heaps_HeapMem_Module_GateProxy_enter__E                    
1002ecaf  ti_sysbios_heaps_HeapMem_Module_GateProxy_leave__E                    
1002ecb3  ti_sysbios_knl_Clock_TimerProxy_getExpiredTicks__E                    
1002ecb7  ti_sysbios_knl_Clock_TimerProxy_getPeriod__E                          
1002ecbb  ti_sysbios_knl_Clock_delete                                           
1002ecbf  ti_sysbios_knl_Clock_removeI__E                                       
1002ecc3  ti_sysbios_knl_Clock_setTimeout__E                                    
1002ecc7  ti_sysbios_knl_Event_delete                                           
1002eccb  ti_sysbios_knl_Mailbox_delete                                         
1002eccf  ti_sysbios_knl_Queue_delete                                           
1002ecd3  ti_sysbios_knl_Queue_head__E                                          
1002ecd7  ti_sysbios_knl_Queue_next__E                                          
1002ecdb  ti_sysbios_knl_Semaphore_delete                                       
1002ecdf  ti_sysbios_knl_Swi_delete                                             
1002ece3  ti_sysbios_knl_Swi_postInit__I                                        
1002ece7  ti_sysbios_knl_Task_delete                                            
1002eceb  ti_sysbios_knl_Task_startup__E                                        
1002ecf1  xdc_runtime_System_doPrint__I                                         
1002f055  xdc_runtime_Startup_startMods__I                                      
1002f15d  xdc_runtime_Text_putSite__E                                           
1002f1f7  xdc_runtime_Error_policySpin__E                                       
1002f1f9  xdc_runtime_Text_putMod__E                                            
1002f289  xdc_runtime_Memory_alloc__E                                           
1002f2f9  xdc_runtime_Core_createObject__I                                      
1002f367  xdc_runtime_Core_deleteObject__I                                      
1002f3c5  xdc_runtime_Text_putLab__E                                            
1002f421  xdc_runtime_Assert_raise__I                                           
1002f475  xdc_runtime_Startup_exec__E                                           
1002f4c9  xdc_runtime_Core_assignParams__I                                      
1002f511  xdc_runtime_Core_constructObject__I                                   
1002f559  xdc_runtime_System_atexit__E                                          
1002f5a1  xdc_runtime_Text_xprintf__I                                           
1002f5e5  xdc_runtime_System_processAtExit__E                                   
1002f625  xdc_runtime_System_putchar__I                                         
1002f659  xdc_runtime_Core_assignLabel__I                                       
1002f689  xdc_runtime_Text_printVisFxn__I                                       
1002f6b9  xdc_runtime_System_vprintf__E                                         
1002f6e5  xdc_runtime_Text_cordText__E                                          
1002f711  xdc_runtime_System_abort__E                                           
1002f739  xdc_runtime_Error_raiseX__E                                           
1002f759  xdc_runtime_Registry_findById__E                                      
1002f779  xdc_runtime_Error_check__E                                            
1002f795  xdc_runtime_Memory_valloc__E                                          
1002f7b1  xdc_runtime_System_exit__E                                            
1002f7cd  xdc_runtime_Text_ropeText__E                                          
1002f7e9  xdc_runtime_System_printf__E                                          
1002f803  xdc_runtime_Core_destructObject__I                                    
1002f81b  xdc_runtime_System_abortSpin__E                                       
1002f81d  xdc_runtime_Memory_free__E                                            
1002f831  xdc_runtime_Memory_getStats__E                                        
1002f845  xdc_runtime_SysCallback_abort__E                                      
1002f845  xdc_runtime_System_SupportProxy_abort__E                              
1002f859  xdc_runtime_SysCallback_exit__E                                       
1002f859  xdc_runtime_System_SupportProxy_exit__E                               
1002f86d  xdc_runtime_SysCallback_flush__E                                      
1002f86d  xdc_runtime_System_SupportProxy_flush__E                              
1002f86d  xdc_runtime_System_flush__E                                           
1002f881  xdc_runtime_SysCallback_putch__E                                      
1002f881  xdc_runtime_System_SupportProxy_putch__E                              
1002f895  xdc_runtime_SysCallback_ready__E                                      
1002f895  xdc_runtime_System_SupportProxy_ready__E                              
1002f8a9  xdc_runtime_Memory_getMaxDefaultTypeAlign__E                          
1002f8b9  xdc_runtime_System_vsnprintf__E                                       
1002f8c9  xdc_runtime_Timestamp_SupportProxy_get32__E                           
1002f8c9  xdc_runtime_Timestamp_SupportProxy_get32__E                           
1002f8c9  xdc_runtime_Timestamp_get32__E                                        
1002f8c9  xdc_runtime_Timestamp_get32__E                                        
1002f8d9  xdc_runtime_Memory_calloc__E                                          
1002f8e5  xdc_runtime_Startup_rtsDone__E                                        
1002f8f1  xdc_runtime_Memory_HeapProxy_alloc__E                                 
1002f8fb  xdc_runtime_Memory_HeapProxy_free__E                                  
1002f905  xdc_runtime_Memory_HeapProxy_getStats__E                              
1002f90f  xdc_runtime_Gate_leaveSystem__E                                       
1002f915  xdc_runtime_System_Module_startup__E                                  
1002f91b  xdc_runtime_Gate_enterSystem__E                                       
1002f91f  xdc_runtime_SysCallback_Module__startupDone__S                        
1002f91f  xdc_runtime_System_SupportProxy_Module__startupDone__S                
1002f923  xdc_runtime_System_Module_GateProxy_enter__E                          
1002f927  xdc_runtime_System_Module_GateProxy_leave__E                          
1002f92b  xdc_runtime_System_printf_va__F                                       
1002f92f  xdc_runtime_System_exitSpin__E                                        
1002f931  ti_sysbios_family_arm_m3_Hwi_dispatch__I                              
1002fa11  ti_sysbios_family_arm_m3_Hwi_interruptsAreDisabledButShouldNotBe      
1002fa2d  ti_sysbios_family_arm_m3_TaskSupport_buildTaskStack                   
1002fab9  ti_sysbios_family_arm_m3_Hwi_initStacks__E                            
1002fb11  ti_sysbios_family_arm_m3_Hwi_pendSV__I                                
1002fb35  ti_sysbios_family_arm_m3_Hwi_return                                   
1002fb39  ti_sysbios_family_arm_m3_Hwi_excHandlerAsm__I                         
1002fb59  ti_sysbios_family_xxx_Hwi_switchAndRunFunc                            
1002fb77  ti_sysbios_family_arm_m3_TaskSupport_swap__E                          
1002fb77  ti_sysbios_knl_Task_SupportProxy_swap__E                              
1002fb77  ti_sysbios_knl_Task_SupportProxy_swap__E                              
1002fb83  ti_sysbios_knl_Task_swapReturn                                        
1002fb8f  ti_sysbios_family_arm_m3_TaskSupport_glue                             
1002fba0  ti_sysbios_knl_Task_Object__PARAMS__C                                 
1002fbdc  ti_sysbios_knl_Mailbox_Object__PARAMS__C                              
1002fc10  ti_sysbios_family_arm_m3_Hwi_Object__PARAMS__C                        
1002fc40  ti_sysbios_hal_Hwi_Object__PARAMS__C                                  
1002fc6c  ti_sysbios_knl_Swi_Object__PARAMS__C                                  
1002fc94  ti_sysbios_heaps_HeapMem_Object__PARAMS__C                            
1002fcb8  ti_sysbios_knl_Clock_Object__PARAMS__C                                
1002fcdc  ti_sysbios_knl_Semaphore_Object__PARAMS__C                            
1002fd00  ti_sysbios_gates_GateHwi_Object__PARAMS__C                            
1002fd18  ti_sysbios_gates_GateMutex_Object__PARAMS__C                          
1002fd30  ti_sysbios_knl_Event_Object__PARAMS__C                                
1002fd48  ti_sysbios_knl_Queue_Object__PARAMS__C                                
1002fd80  ti_sysbios_heaps_HeapTrack_Object__PARAMS__C                          
1002fd9c  ti_sysbios_heaps_HeapTrack_Instance_State_trackQueue__O               
1002fda0  ti_sysbios_heaps_HeapTrack_Module__diagsEnabled__C                    
1002fda4  ti_sysbios_heaps_HeapTrack_Module__diagsIncluded__C                   
1002fda8  ti_sysbios_heaps_HeapTrack_Module__diagsMask__C                       
1002fddb  strlen                                                                
20000000  ti_sysbios_family_arm_m3_Hwi_ramVectors                               
20000100  xdcRomConstPtr                                                        
20000104  xdcRomExternFuncPtr                                                   
20000108  xdcRomStatePtr                                                        
20000110  __primary_heap_start__                                                
20004110  __primary_heap_end__                                                  
20004580  ti_sysbios_knl_Task_Instance_State_0_stack__A                         
20004780  uartCC26XXObjects                                                     
200048ac  ti_sysbios_family_arm_m3_Hwi_dispatchTable                            
20004abc  pinHandleTable                                                        
20004d70  ClockP_tickPeriod                                                     
20004d74  MQ_UartOUT_RfIN                                                       
20004d78  MQ_Uart_Sent                                                          
20004d7c  PowerCC26XX_swiKey                                                    
20004d80  PowerCC26XX_taskKey                                                   
20004d84  uart                                                                  
20004d89  driverlib_release_0_55938                                             
20004d90  PowerCC26X2_module                                                    
20004ea0  ROM_stateStruct                                                       
20004ea0  ti_sysbios_knl_Clock_Module__state__V                                 
20004ecc  ti_sysbios_family_arm_cc26xx_TimestampProvider_Module__state__V       
20004ed0  xdc_runtime_Startup_Module__state__V                                  
20004ed8  xdc_runtime_Registry_Module__state__V                                 
20004ee0  ti_sysbios_BIOS_Module__state__V                                      
20004f04  ti_sysbios_knl_Swi_Module__state__V                                   
20004f20  ti_sysbios_knl_Task_Module__state__V                                  
20004f64  xdc_runtime_Memory_Module__state__V                                   
20004f68  xdc_runtime_System_Module__state__V                                   
20004f70  ti_sysbios_family_arm_m3_Hwi_Module__state__V                         
20004fa4  ti_sysbios_family_arm_cc26xx_Timer_Module__state__V                   
20005034  txPowerTable                                                          
200050b6  ti_sysbios_family_arm_m3_Hwi_Module_State_0_excActive__A              
200050b8  ti_sysbios_gates_GateMutex_Object__table__V                           
2000510c  ti_sysbios_knl_Task_Object__table__V                                  
20005158  ti_sysbios_family_arm_cc26xx_Timer_Object__table__V                   
200051e0  RF_cmdPropRadioDivSetup                                               
20005210  RF_cmdPropRxAdv                                                       
20005240  ti_sysbios_knl_Swi_Module_State_0_readyQ__A                           
20005270  ti_sysbios_knl_Swi_Object__table__V                                   
200052a0  ti_sysbios_knl_Task_Module_State_0_readyQ__A                          
200052d0  EasyLink_supportedPhys                                                
200052f4  ti_sysbios_knl_Clock_Object__table__V                                 
20005314  xdc_runtime_Error_IgnoreBlock                                         
20005350  RF_cmdFs                                                              
20005368  RF_cmdPropTx                                                          
20005380  pOverrides                                                            
20005398  ti_sysbios_family_arm_m3_Hwi_Object__table__V                         
200053b0  ti_sysbios_heaps_HeapMem_Object__table__V                             
200053c8  pOverridesTx20                                                        
200053dc  pOverridesTxStd                                                       
200053f0  RF_prop                                                               
20005400  pinTable                                                              
2000540c  _lock                                                                 
20005410  _unlock                                                               
20005414  pinUpperBound                                                         
20005418  pinLowerBound                                                         
2000541c  ti_sysbios_family_arm_m3_Hwi_Module__root__V                          
20005424  ti_sysbios_gates_GateHwi_Module__root__V                              
2000542c  ti_sysbios_gates_GateMutex_Module__root__V                            
20005434  ti_sysbios_hal_Hwi_Module__root__V                                    
2000543c  ti_sysbios_heaps_HeapMem_Module__root__V                              
20005444  ti_sysbios_knl_Clock_Module__root__V                                  
2000544c  ti_sysbios_knl_Event_Module__root__V                                  
20005454  ti_sysbios_knl_Mailbox_Module__root__V                                
2000545c  ti_sysbios_knl_Queue_Module__root__V                                  
20005464  ti_sysbios_knl_Semaphore_Module__root__V                              
2000546c  ti_sysbios_knl_Swi_Module__root__V                                    
20005474  ti_sysbios_knl_Task_Module__root__V                                   
2000547c  xdc_runtime_System_Module_State_0_atexitHandlers__A                   
20005488  main_func_sp                                                          
2000548c  ti_sysbios_family_arm_m3_Hwi_Module_State_0_excContext__A             
20005490  ti_sysbios_family_arm_m3_Hwi_Module_State_0_excStack__A               
20005494  ti_sysbios_knl_Task_Module_State_0_idleTask__A                        
20013c00  __stack                                                               
20014000  __STACK_END                                                           
e000e000  ti_sysbios_family_arm_m3_Hwi_nvic                                     
ffffffff  __TI_pprof_out_hndl                                                   
ffffffff  __TI_prof_data_size                                                   
ffffffff  __TI_prof_data_start                                                  
ffffffff  __binit__                                                             
ffffffff  __c_args__                                                            
ffffffff  binit                                                                 
UNDEFED   SHT$$INIT_ARRAY$$Base                                                 
UNDEFED   SHT$$INIT_ARRAY$$Limit                                                

[1037 symbols]
